
a.out:     ファイル形式 elf32-i386


セクション .init の逆アセンブル:

08048294 <_init>:
 8048294:	53                   	push   ebx
 8048295:	83 ec 08             	sub    esp,0x8
 8048298:	e8 83 00 00 00       	call   8048320 <__x86.get_pc_thunk.bx>
 804829d:	81 c3 63 2d 00 00    	add    ebx,0x2d63
 80482a3:	8b 83 fc ff ff ff    	mov    eax,DWORD PTR [ebx-0x4]
 80482a9:	85 c0                	test   eax,eax
 80482ab:	74 05                	je     80482b2 <_init+0x1e>
 80482ad:	e8 1e 00 00 00       	call   80482d0 <__gmon_start__@plt>
 80482b2:	83 c4 08             	add    esp,0x8
 80482b5:	5b                   	pop    ebx
 80482b6:	c3                   	ret    

セクション .plt の逆アセンブル:

080482c0 <__gmon_start__@plt-0x10>:
 80482c0:	ff 35 04 b0 04 08    	push   DWORD PTR ds:0x804b004
 80482c6:	ff 25 08 b0 04 08    	jmp    DWORD PTR ds:0x804b008
 80482cc:	00 00                	add    BYTE PTR [eax],al
	...

080482d0 <__gmon_start__@plt>:
 80482d0:	ff 25 0c b0 04 08    	jmp    DWORD PTR ds:0x804b00c
 80482d6:	68 00 00 00 00       	push   0x0
 80482db:	e9 e0 ff ff ff       	jmp    80482c0 <_init+0x2c>

080482e0 <__libc_start_main@plt>:
 80482e0:	ff 25 10 b0 04 08    	jmp    DWORD PTR ds:0x804b010
 80482e6:	68 08 00 00 00       	push   0x8
 80482eb:	e9 d0 ff ff ff       	jmp    80482c0 <_init+0x2c>

セクション .text の逆アセンブル:

080482f0 <_start>:
 80482f0:	31 ed                	xor    ebp,ebp
 80482f2:	5e                   	pop    esi
 80482f3:	89 e1                	mov    ecx,esp
 80482f5:	83 e4 f0             	and    esp,0xfffffff0
 80482f8:	50                   	push   eax
 80482f9:	54                   	push   esp
 80482fa:	52                   	push   edx
 80482fb:	68 e0 93 04 08       	push   0x80493e0
 8048300:	68 70 93 04 08       	push   0x8049370
 8048305:	51                   	push   ecx
 8048306:	56                   	push   esi
 8048307:	68 22 93 04 08       	push   0x8049322
 804830c:	e8 cf ff ff ff       	call   80482e0 <__libc_start_main@plt>
 8048311:	f4                   	hlt    
 8048312:	66 90                	xchg   ax,ax
 8048314:	66 90                	xchg   ax,ax
 8048316:	66 90                	xchg   ax,ax
 8048318:	66 90                	xchg   ax,ax
 804831a:	66 90                	xchg   ax,ax
 804831c:	66 90                	xchg   ax,ax
 804831e:	66 90                	xchg   ax,ax

08048320 <__x86.get_pc_thunk.bx>:
 8048320:	8b 1c 24             	mov    ebx,DWORD PTR [esp]
 8048323:	c3                   	ret    
 8048324:	66 90                	xchg   ax,ax
 8048326:	66 90                	xchg   ax,ax
 8048328:	66 90                	xchg   ax,ax
 804832a:	66 90                	xchg   ax,ax
 804832c:	66 90                	xchg   ax,ax
 804832e:	66 90                	xchg   ax,ax

08048330 <deregister_tm_clones>:
 8048330:	b8 3b b0 04 08       	mov    eax,0x804b03b
 8048335:	2d 38 b0 04 08       	sub    eax,0x804b038
 804833a:	83 f8 06             	cmp    eax,0x6
 804833d:	77 01                	ja     8048340 <deregister_tm_clones+0x10>
 804833f:	c3                   	ret    
 8048340:	b8 00 00 00 00       	mov    eax,0x0
 8048345:	85 c0                	test   eax,eax
 8048347:	74 f6                	je     804833f <deregister_tm_clones+0xf>
 8048349:	55                   	push   ebp
 804834a:	89 e5                	mov    ebp,esp
 804834c:	83 ec 18             	sub    esp,0x18
 804834f:	c7 04 24 38 b0 04 08 	mov    DWORD PTR [esp],0x804b038
 8048356:	ff d0                	call   eax
 8048358:	c9                   	leave  
 8048359:	c3                   	ret    
 804835a:	8d b6 00 00 00 00    	lea    esi,[esi+0x0]

08048360 <register_tm_clones>:
 8048360:	b8 38 b0 04 08       	mov    eax,0x804b038
 8048365:	2d 38 b0 04 08       	sub    eax,0x804b038
 804836a:	c1 f8 02             	sar    eax,0x2
 804836d:	89 c2                	mov    edx,eax
 804836f:	c1 ea 1f             	shr    edx,0x1f
 8048372:	01 d0                	add    eax,edx
 8048374:	d1 f8                	sar    eax,1
 8048376:	75 01                	jne    8048379 <register_tm_clones+0x19>
 8048378:	c3                   	ret    
 8048379:	ba 00 00 00 00       	mov    edx,0x0
 804837e:	85 d2                	test   edx,edx
 8048380:	74 f6                	je     8048378 <register_tm_clones+0x18>
 8048382:	55                   	push   ebp
 8048383:	89 e5                	mov    ebp,esp
 8048385:	83 ec 18             	sub    esp,0x18
 8048388:	89 44 24 04          	mov    DWORD PTR [esp+0x4],eax
 804838c:	c7 04 24 38 b0 04 08 	mov    DWORD PTR [esp],0x804b038
 8048393:	ff d2                	call   edx
 8048395:	c9                   	leave  
 8048396:	c3                   	ret    
 8048397:	89 f6                	mov    esi,esi
 8048399:	8d bc 27 00 00 00 00 	lea    edi,[edi+eiz*1+0x0]

080483a0 <__do_global_dtors_aux>:
 80483a0:	80 3d 38 b0 04 08 00 	cmp    BYTE PTR ds:0x804b038,0x0
 80483a7:	75 13                	jne    80483bc <__do_global_dtors_aux+0x1c>
 80483a9:	55                   	push   ebp
 80483aa:	89 e5                	mov    ebp,esp
 80483ac:	83 ec 08             	sub    esp,0x8
 80483af:	e8 7c ff ff ff       	call   8048330 <deregister_tm_clones>
 80483b4:	c6 05 38 b0 04 08 01 	mov    BYTE PTR ds:0x804b038,0x1
 80483bb:	c9                   	leave  
 80483bc:	f3 c3                	repz ret 
 80483be:	66 90                	xchg   ax,ax

080483c0 <frame_dummy>:
 80483c0:	a1 10 af 04 08       	mov    eax,ds:0x804af10
 80483c5:	85 c0                	test   eax,eax
 80483c7:	74 1f                	je     80483e8 <frame_dummy+0x28>
 80483c9:	b8 00 00 00 00       	mov    eax,0x0
 80483ce:	85 c0                	test   eax,eax
 80483d0:	74 16                	je     80483e8 <frame_dummy+0x28>
 80483d2:	55                   	push   ebp
 80483d3:	89 e5                	mov    ebp,esp
 80483d5:	83 ec 18             	sub    esp,0x18
 80483d8:	c7 04 24 10 af 04 08 	mov    DWORD PTR [esp],0x804af10
 80483df:	ff d0                	call   eax
 80483e1:	c9                   	leave  
 80483e2:	e9 79 ff ff ff       	jmp    8048360 <register_tm_clones>
 80483e7:	90                   	nop
 80483e8:	e9 73 ff ff ff       	jmp    8048360 <register_tm_clones>
 80483ed:	66 90                	xchg   ax,ax
 80483ef:	90                   	nop
 80483f0:	ba 01 00 00 00       	mov    edx,0x1
 80483f5:	8d 4c 24 04          	lea    ecx,[esp+0x4]
 80483f9:	bb 01 00 00 00       	mov    ebx,0x1
 80483fe:	b8 04 00 00 00       	mov    eax,0x4
 8048403:	cd 80                	int    0x80
 8048405:	c3                   	ret    
 8048406:	ba 01 00 00 00       	mov    edx,0x1
 804840b:	8d 4c 24 fc          	lea    ecx,[esp-0x4]
 804840f:	bb 00 00 00 00       	mov    ebx,0x0
 8048414:	b8 03 00 00 00       	mov    eax,0x3
 8048419:	cd 80                	int    0x80
 804841b:	8b 44 24 fc          	mov    eax,DWORD PTR [esp-0x4]
 804841f:	25 ff 00 00 00       	and    eax,0xff
 8048424:	c3                   	ret    
 8048425:	db 44 24 04          	fild   DWORD PTR [esp+0x4]
 8048429:	d9 5c 24 fc          	fstp   DWORD PTR [esp-0x4]
 804842d:	8b 44 24 fc          	mov    eax,DWORD PTR [esp-0x4]
 8048431:	c3                   	ret    
 8048432:	d9 44 24 04          	fld    DWORD PTR [esp+0x4]
 8048436:	db 54 24 fc          	fist   DWORD PTR [esp-0x4]
 804843a:	8b 44 24 fc          	mov    eax,DWORD PTR [esp-0x4]
 804843e:	c3                   	ret    
 804843f:	31 c0                	xor    eax,eax
 8048441:	d9 44 24 04          	fld    DWORD PTR [esp+0x4]
 8048445:	d9 44 24 08          	fld    DWORD PTR [esp+0x8]
 8048449:	de d9                	fcompp 
 804844b:	9b df e0             	fstsw  ax
 804844e:	c1 e8 08             	shr    eax,0x8
 8048451:	83 e0 01             	and    eax,0x1
 8048454:	c3                   	ret    
 8048455:	31 c0                	xor    eax,eax
 8048457:	d9 44 24 04          	fld    DWORD PTR [esp+0x4]
 804845b:	d9 e4                	ftst   
 804845d:	9b df e0             	fstsw  ax
 8048460:	c1 e8 0e             	shr    eax,0xe
 8048463:	83 e0 01             	and    eax,0x1
 8048466:	c3                   	ret    
 8048467:	31 c0                	xor    eax,eax
 8048469:	d9 44 24 04          	fld    DWORD PTR [esp+0x4]
 804846d:	d9 e4                	ftst   
 804846f:	9b df e0             	fstsw  ax
 8048472:	c1 e8 08             	shr    eax,0x8
 8048475:	83 e0 01             	and    eax,0x1
 8048478:	c3                   	ret    
 8048479:	d9 44 24 04          	fld    DWORD PTR [esp+0x4]
 804847d:	d9 05 20 b0 04 08    	fld    DWORD PTR ds:0x804b020
 8048483:	de c9                	fmulp  st(1),st
 8048485:	d9 5c 24 fc          	fstp   DWORD PTR [esp-0x4]
 8048489:	8b 44 24 fc          	mov    eax,DWORD PTR [esp-0x4]
 804848d:	c3                   	ret    
 804848e:	31 c0                	xor    eax,eax
 8048490:	d9 44 24 04          	fld    DWORD PTR [esp+0x4]
 8048494:	d9 e4                	ftst   
 8048496:	9b df e0             	fstsw  ax
 8048499:	89 c3                	mov    ebx,eax
 804849b:	c1 e8 0e             	shr    eax,0xe
 804849e:	c1 eb 08             	shr    ebx,0x8
 80484a1:	09 d8                	or     eax,ebx
 80484a3:	83 e0 01             	and    eax,0x1
 80484a6:	83 f0 01             	xor    eax,0x1
 80484a9:	c3                   	ret    
 80484aa:	d9 44 24 04          	fld    DWORD PTR [esp+0x4]
 80484ae:	d9 e0                	fchs   
 80484b0:	d9 5c 24 fc          	fstp   DWORD PTR [esp-0x4]
 80484b4:	8b 44 24 fc          	mov    eax,DWORD PTR [esp-0x4]
 80484b8:	c3                   	ret    
 80484b9:	d9 44 24 04          	fld    DWORD PTR [esp+0x4]
 80484bd:	d9 fa                	fsqrt  
 80484bf:	d9 5c 24 fc          	fstp   DWORD PTR [esp-0x4]
 80484c3:	8b 44 24 fc          	mov    eax,DWORD PTR [esp-0x4]
 80484c7:	c3                   	ret    
 80484c8:	d9 44 24 04          	fld    DWORD PTR [esp+0x4]
 80484cc:	d9 fa                	fsqrt  
 80484ce:	db 54 24 fc          	fist   DWORD PTR [esp-0x4]
 80484d2:	8b 44 24 fc          	mov    eax,DWORD PTR [esp-0x4]
 80484d6:	c3                   	ret    
 80484d7:	d9 44 24 04          	fld    DWORD PTR [esp+0x4]
 80484db:	d9 ff                	fcos   
 80484dd:	d9 5c 24 fc          	fstp   DWORD PTR [esp-0x4]
 80484e1:	8b 44 24 fc          	mov    eax,DWORD PTR [esp-0x4]
 80484e5:	c3                   	ret    
 80484e6:	d9 44 24 04          	fld    DWORD PTR [esp+0x4]
 80484ea:	d9 fe                	fsin   
 80484ec:	d9 5c 24 fc          	fstp   DWORD PTR [esp-0x4]
 80484f0:	8b 44 24 fc          	mov    eax,DWORD PTR [esp-0x4]
 80484f4:	c3                   	ret    
 80484f5:	d9 44 24 04          	fld    DWORD PTR [esp+0x4]
 80484f9:	d9 f3                	fpatan 
 80484fb:	d9 5c 24 fc          	fstp   DWORD PTR [esp-0x4]
 80484ff:	8b 44 24 fc          	mov    eax,DWORD PTR [esp-0x4]
 8048503:	c3                   	ret    
 8048504:	d9 44 24 04          	fld    DWORD PTR [esp+0x4]
 8048508:	d9 e1                	fabs   
 804850a:	d9 5c 24 fc          	fstp   DWORD PTR [esp-0x4]
 804850e:	8b 44 24 fc          	mov    eax,DWORD PTR [esp-0x4]
 8048512:	c3                   	ret    
 8048513:	d9 44 24 04          	fld    DWORD PTR [esp+0x4]
 8048517:	d9 05 20 b0 04 08    	fld    DWORD PTR ds:0x804b020
 804851d:	de c1                	faddp  st(1),st
 804851f:	db 54 24 fc          	fist   DWORD PTR [esp-0x4]
 8048523:	db 44 24 fc          	fild   DWORD PTR [esp-0x4]
 8048527:	8b 44 24 fc          	mov    eax,DWORD PTR [esp-0x4]
 804852b:	c3                   	ret    
 804852c:	55                   	push   ebp
 804852d:	89 e5                	mov    ebp,esp
 804852f:	83 ec 1c             	sub    esp,0x1c
 8048532:	8b 45 08             	mov    eax,DWORD PTR [ebp+0x8]
 8048535:	89 45 f8             	mov    DWORD PTR [ebp-0x8],eax
 8048538:	8b 45 08             	mov    eax,DWORD PTR [ebp+0x8]
 804853b:	89 45 e8             	mov    DWORD PTR [ebp-0x18],eax
 804853e:	8b 45 0c             	mov    eax,DWORD PTR [ebp+0xc]
 8048541:	89 45 ec             	mov    DWORD PTR [ebp-0x14],eax
 8048544:	8b 5d ec             	mov    ebx,DWORD PTR [ebp-0x14]
 8048547:	8b 45 e8             	mov    eax,DWORD PTR [ebp-0x18]
 804854a:	31 d2                	xor    edx,edx
 804854c:	f7 f3                	div    ebx
 804854e:	89 45 f0             	mov    DWORD PTR [ebp-0x10],eax
 8048551:	8b 45 0c             	mov    eax,DWORD PTR [ebp+0xc]
 8048554:	89 45 f4             	mov    DWORD PTR [ebp-0xc],eax
 8048557:	8b 5d f4             	mov    ebx,DWORD PTR [ebp-0xc]
 804855a:	8b 45 f0             	mov    eax,DWORD PTR [ebp-0x10]
 804855d:	f7 e3                	mul    ebx
 804855f:	89 45 fc             	mov    DWORD PTR [ebp-0x4],eax
 8048562:	8b 5d fc             	mov    ebx,DWORD PTR [ebp-0x4]
 8048565:	8b 45 f8             	mov    eax,DWORD PTR [ebp-0x8]
 8048568:	29 d8                	sub    eax,ebx
 804856a:	89 45 e4             	mov    DWORD PTR [ebp-0x1c],eax
 804856d:	8b 45 e4             	mov    eax,DWORD PTR [ebp-0x1c]
 8048570:	83 c4 1c             	add    esp,0x1c
 8048573:	5d                   	pop    ebp
 8048574:	c3                   	ret    
 8048575:	55                   	push   ebp
 8048576:	89 e5                	mov    ebp,esp
 8048578:	83 ec 68             	sub    esp,0x68
 804857b:	8b 45 08             	mov    eax,DWORD PTR [ebp+0x8]
 804857e:	89 45 9c             	mov    DWORD PTR [ebp-0x64],eax
 8048581:	c7 45 a0 0a 00 00 00 	mov    DWORD PTR [ebp-0x60],0xa
 8048588:	8b 5d a0             	mov    ebx,DWORD PTR [ebp-0x60]
 804858b:	8b 45 9c             	mov    eax,DWORD PTR [ebp-0x64]
 804858e:	31 c9                	xor    ecx,ecx
 8048590:	39 d8                	cmp    eax,ebx
 8048592:	0f 9c c1             	setl   cl
 8048595:	89 c8                	mov    eax,ecx
 8048597:	89 45 a4             	mov    DWORD PTR [ebp-0x5c],eax
 804859a:	c7 45 a8 01 00 00 00 	mov    DWORD PTR [ebp-0x58],0x1
 80485a1:	8b 45 a4             	mov    eax,DWORD PTR [ebp-0x5c]
 80485a4:	8b 5d a8             	mov    ebx,DWORD PTR [ebp-0x58]
 80485a7:	39 d8                	cmp    eax,ebx
 80485a9:	75 7c                	jne    8048627 <frame_dummy+0x267>
 80485ab:	c7 45 ac 00 00 00 00 	mov    DWORD PTR [ebp-0x54],0x0
 80485b2:	8b 45 08             	mov    eax,DWORD PTR [ebp+0x8]
 80485b5:	89 45 b0             	mov    DWORD PTR [ebp-0x50],eax
 80485b8:	8b 5d b0             	mov    ebx,DWORD PTR [ebp-0x50]
 80485bb:	8b 45 ac             	mov    eax,DWORD PTR [ebp-0x54]
 80485be:	31 c9                	xor    ecx,ecx
 80485c0:	39 d8                	cmp    eax,ebx
 80485c2:	0f 9c c1             	setl   cl
 80485c5:	89 c8                	mov    eax,ecx
 80485c7:	89 45 b4             	mov    DWORD PTR [ebp-0x4c],eax
 80485ca:	c7 45 b8 01 00 00 00 	mov    DWORD PTR [ebp-0x48],0x1
 80485d1:	8b 45 b4             	mov    eax,DWORD PTR [ebp-0x4c]
 80485d4:	8b 5d b8             	mov    ebx,DWORD PTR [ebp-0x48]
 80485d7:	39 d8                	cmp    eax,ebx
 80485d9:	75 41                	jne    804861c <frame_dummy+0x25c>
 80485db:	89 f2                	mov    edx,esi
 80485dd:	83 c6 00             	add    esi,0x0
 80485e0:	89 56 04             	mov    DWORD PTR [esi+0x4],edx
 80485e3:	c7 06 f0 83 04 08    	mov    DWORD PTR [esi],0x80483f0
 80485e9:	89 75 c4             	mov    DWORD PTR [ebp-0x3c],esi
 80485ec:	83 c6 08             	add    esi,0x8
 80485ef:	8b 45 08             	mov    eax,DWORD PTR [ebp+0x8]
 80485f2:	89 45 bc             	mov    DWORD PTR [ebp-0x44],eax
 80485f5:	c7 45 c0 30 00 00 00 	mov    DWORD PTR [ebp-0x40],0x30
 80485fc:	8b 5d c0             	mov    ebx,DWORD PTR [ebp-0x40]
 80485ff:	8b 45 bc             	mov    eax,DWORD PTR [ebp-0x44]
 8048602:	01 d8                	add    eax,ebx
 8048604:	89 45 c8             	mov    DWORD PTR [ebp-0x38],eax
 8048607:	57                   	push   edi
 8048608:	ff 75 c8             	push   DWORD PTR [ebp-0x38]
 804860b:	8b 45 c4             	mov    eax,DWORD PTR [ebp-0x3c]
 804860e:	8b 78 04             	mov    edi,DWORD PTR [eax+0x4]
 8048611:	ff 10                	call   DWORD PTR [eax]
 8048613:	89 45 98             	mov    DWORD PTR [ebp-0x68],eax
 8048616:	83 c4 04             	add    esp,0x4
 8048619:	5f                   	pop    edi
 804861a:	eb 06                	jmp    8048622 <frame_dummy+0x262>
 804861c:	89 75 98             	mov    DWORD PTR [ebp-0x68],esi
 804861f:	83 c6 00             	add    esi,0x0
 8048622:	e9 9a 00 00 00       	jmp    80486c1 <frame_dummy+0x301>
 8048627:	8b 07                	mov    eax,DWORD PTR [edi]
 8048629:	89 45 d4             	mov    DWORD PTR [ebp-0x2c],eax
 804862c:	8b 45 08             	mov    eax,DWORD PTR [ebp+0x8]
 804862f:	89 45 cc             	mov    DWORD PTR [ebp-0x34],eax
 8048632:	c7 45 d0 0a 00 00 00 	mov    DWORD PTR [ebp-0x30],0xa
 8048639:	8b 5d d0             	mov    ebx,DWORD PTR [ebp-0x30]
 804863c:	8b 45 cc             	mov    eax,DWORD PTR [ebp-0x34]
 804863f:	31 d2                	xor    edx,edx
 8048641:	f7 f3                	div    ebx
 8048643:	89 45 d8             	mov    DWORD PTR [ebp-0x28],eax
 8048646:	57                   	push   edi
 8048647:	ff 75 d8             	push   DWORD PTR [ebp-0x28]
 804864a:	8b 45 d4             	mov    eax,DWORD PTR [ebp-0x2c]
 804864d:	8b 78 04             	mov    edi,DWORD PTR [eax+0x4]
 8048650:	ff 10                	call   DWORD PTR [eax]
 8048652:	89 45 f8             	mov    DWORD PTR [ebp-0x8],eax
 8048655:	83 c4 04             	add    esp,0x4
 8048658:	5f                   	pop    edi
 8048659:	89 f2                	mov    edx,esi
 804865b:	83 c6 00             	add    esi,0x0
 804865e:	89 56 04             	mov    DWORD PTR [esi+0x4],edx
 8048661:	c7 06 f0 83 04 08    	mov    DWORD PTR [esi],0x80483f0
 8048667:	89 75 f0             	mov    DWORD PTR [ebp-0x10],esi
 804866a:	83 c6 08             	add    esi,0x8
 804866d:	8b 47 04             	mov    eax,DWORD PTR [edi+0x4]
 8048670:	89 45 dc             	mov    DWORD PTR [ebp-0x24],eax
 8048673:	8b 45 08             	mov    eax,DWORD PTR [ebp+0x8]
 8048676:	89 45 e0             	mov    DWORD PTR [ebp-0x20],eax
 8048679:	c7 45 e4 0a 00 00 00 	mov    DWORD PTR [ebp-0x1c],0xa
 8048680:	57                   	push   edi
 8048681:	ff 75 e4             	push   DWORD PTR [ebp-0x1c]
 8048684:	ff 75 e0             	push   DWORD PTR [ebp-0x20]
 8048687:	8b 45 dc             	mov    eax,DWORD PTR [ebp-0x24]
 804868a:	8b 78 04             	mov    edi,DWORD PTR [eax+0x4]
 804868d:	ff 10                	call   DWORD PTR [eax]
 804868f:	89 45 e8             	mov    DWORD PTR [ebp-0x18],eax
 8048692:	83 c4 08             	add    esp,0x8
 8048695:	5f                   	pop    edi
 8048696:	c7 45 ec 30 00 00 00 	mov    DWORD PTR [ebp-0x14],0x30
 804869d:	8b 5d ec             	mov    ebx,DWORD PTR [ebp-0x14]
 80486a0:	8b 45 e8             	mov    eax,DWORD PTR [ebp-0x18]
 80486a3:	01 d8                	add    eax,ebx
 80486a5:	89 45 f4             	mov    DWORD PTR [ebp-0xc],eax
 80486a8:	57                   	push   edi
 80486a9:	ff 75 f4             	push   DWORD PTR [ebp-0xc]
 80486ac:	8b 45 f0             	mov    eax,DWORD PTR [ebp-0x10]
 80486af:	8b 78 04             	mov    edi,DWORD PTR [eax+0x4]
 80486b2:	ff 10                	call   DWORD PTR [eax]
 80486b4:	89 45 fc             	mov    DWORD PTR [ebp-0x4],eax
 80486b7:	83 c4 04             	add    esp,0x4
 80486ba:	5f                   	pop    edi
 80486bb:	8b 45 fc             	mov    eax,DWORD PTR [ebp-0x4]
 80486be:	89 45 98             	mov    DWORD PTR [ebp-0x68],eax
 80486c1:	8b 45 98             	mov    eax,DWORD PTR [ebp-0x68]
 80486c4:	83 c4 68             	add    esp,0x68
 80486c7:	5d                   	pop    ebp
 80486c8:	c3                   	ret    
 80486c9:	55                   	push   ebp
 80486ca:	89 e5                	mov    ebp,esp
 80486cc:	83 ec 4c             	sub    esp,0x4c
 80486cf:	8b 45 08             	mov    eax,DWORD PTR [ebp+0x8]
 80486d2:	89 45 b8             	mov    DWORD PTR [ebp-0x48],eax
 80486d5:	c7 45 bc 00 00 00 00 	mov    DWORD PTR [ebp-0x44],0x0
 80486dc:	8b 45 b8             	mov    eax,DWORD PTR [ebp-0x48]
 80486df:	8b 5d bc             	mov    ebx,DWORD PTR [ebp-0x44]
 80486e2:	39 d8                	cmp    eax,ebx
 80486e4:	75 33                	jne    8048719 <frame_dummy+0x359>
 80486e6:	89 f2                	mov    edx,esi
 80486e8:	83 c6 00             	add    esi,0x0
 80486eb:	89 56 04             	mov    DWORD PTR [esi+0x4],edx
 80486ee:	c7 06 f0 83 04 08    	mov    DWORD PTR [esi],0x80483f0
 80486f4:	89 75 c0             	mov    DWORD PTR [ebp-0x40],esi
 80486f7:	83 c6 08             	add    esi,0x8
 80486fa:	c7 45 c4 30 00 00 00 	mov    DWORD PTR [ebp-0x3c],0x30
 8048701:	57                   	push   edi
 8048702:	ff 75 c4             	push   DWORD PTR [ebp-0x3c]
 8048705:	8b 45 c0             	mov    eax,DWORD PTR [ebp-0x40]
 8048708:	8b 78 04             	mov    edi,DWORD PTR [eax+0x4]
 804870b:	ff 10                	call   DWORD PTR [eax]
 804870d:	89 45 b4             	mov    DWORD PTR [ebp-0x4c],eax
 8048710:	83 c4 04             	add    esp,0x4
 8048713:	5f                   	pop    edi
 8048714:	e9 b4 00 00 00       	jmp    80487cd <frame_dummy+0x40d>
 8048719:	8b 45 08             	mov    eax,DWORD PTR [ebp+0x8]
 804871c:	89 45 c8             	mov    DWORD PTR [ebp-0x38],eax
 804871f:	c7 45 cc 00 00 00 00 	mov    DWORD PTR [ebp-0x34],0x0
 8048726:	8b 5d cc             	mov    ebx,DWORD PTR [ebp-0x34]
 8048729:	8b 45 c8             	mov    eax,DWORD PTR [ebp-0x38]
 804872c:	31 c9                	xor    ecx,ecx
 804872e:	39 d8                	cmp    eax,ebx
 8048730:	0f 9c c1             	setl   cl
 8048733:	89 c8                	mov    eax,ecx
 8048735:	89 45 d0             	mov    DWORD PTR [ebp-0x30],eax
 8048738:	c7 45 d4 01 00 00 00 	mov    DWORD PTR [ebp-0x2c],0x1
 804873f:	8b 45 d0             	mov    eax,DWORD PTR [ebp-0x30]
 8048742:	8b 5d d4             	mov    ebx,DWORD PTR [ebp-0x2c]
 8048745:	39 d8                	cmp    eax,ebx
 8048747:	75 66                	jne    80487af <frame_dummy+0x3ef>
 8048749:	89 f2                	mov    edx,esi
 804874b:	83 c6 00             	add    esi,0x0
 804874e:	89 56 04             	mov    DWORD PTR [esi+0x4],edx
 8048751:	c7 06 f0 83 04 08    	mov    DWORD PTR [esi],0x80483f0
 8048757:	89 75 d8             	mov    DWORD PTR [ebp-0x28],esi
 804875a:	83 c6 08             	add    esi,0x8
 804875d:	c7 45 dc 2d 00 00 00 	mov    DWORD PTR [ebp-0x24],0x2d
 8048764:	57                   	push   edi
 8048765:	ff 75 dc             	push   DWORD PTR [ebp-0x24]
 8048768:	8b 45 d8             	mov    eax,DWORD PTR [ebp-0x28]
 804876b:	8b 78 04             	mov    edi,DWORD PTR [eax+0x4]
 804876e:	ff 10                	call   DWORD PTR [eax]
 8048770:	89 45 f0             	mov    DWORD PTR [ebp-0x10],eax
 8048773:	83 c4 04             	add    esp,0x4
 8048776:	5f                   	pop    edi
 8048777:	8b 07                	mov    eax,DWORD PTR [edi]
 8048779:	89 45 e8             	mov    DWORD PTR [ebp-0x18],eax
 804877c:	c7 45 e0 00 00 00 00 	mov    DWORD PTR [ebp-0x20],0x0
 8048783:	8b 45 08             	mov    eax,DWORD PTR [ebp+0x8]
 8048786:	89 45 e4             	mov    DWORD PTR [ebp-0x1c],eax
 8048789:	8b 5d e4             	mov    ebx,DWORD PTR [ebp-0x1c]
 804878c:	8b 45 e0             	mov    eax,DWORD PTR [ebp-0x20]
 804878f:	29 d8                	sub    eax,ebx
 8048791:	89 45 ec             	mov    DWORD PTR [ebp-0x14],eax
 8048794:	57                   	push   edi
 8048795:	ff 75 ec             	push   DWORD PTR [ebp-0x14]
 8048798:	8b 45 e8             	mov    eax,DWORD PTR [ebp-0x18]
 804879b:	8b 78 04             	mov    edi,DWORD PTR [eax+0x4]
 804879e:	ff 10                	call   DWORD PTR [eax]
 80487a0:	89 45 f4             	mov    DWORD PTR [ebp-0xc],eax
 80487a3:	83 c4 04             	add    esp,0x4
 80487a6:	5f                   	pop    edi
 80487a7:	8b 45 f4             	mov    eax,DWORD PTR [ebp-0xc]
 80487aa:	89 45 b4             	mov    DWORD PTR [ebp-0x4c],eax
 80487ad:	eb 1e                	jmp    80487cd <frame_dummy+0x40d>
 80487af:	8b 07                	mov    eax,DWORD PTR [edi]
 80487b1:	89 45 f8             	mov    DWORD PTR [ebp-0x8],eax
 80487b4:	8b 45 08             	mov    eax,DWORD PTR [ebp+0x8]
 80487b7:	89 45 fc             	mov    DWORD PTR [ebp-0x4],eax
 80487ba:	57                   	push   edi
 80487bb:	ff 75 fc             	push   DWORD PTR [ebp-0x4]
 80487be:	8b 45 f8             	mov    eax,DWORD PTR [ebp-0x8]
 80487c1:	8b 78 04             	mov    edi,DWORD PTR [eax+0x4]
 80487c4:	ff 10                	call   DWORD PTR [eax]
 80487c6:	89 45 b4             	mov    DWORD PTR [ebp-0x4c],eax
 80487c9:	83 c4 04             	add    esp,0x4
 80487cc:	5f                   	pop    edi
 80487cd:	8b 45 b4             	mov    eax,DWORD PTR [ebp-0x4c]
 80487d0:	83 c4 4c             	add    esp,0x4c
 80487d3:	5d                   	pop    ebp
 80487d4:	c3                   	ret    
 80487d5:	55                   	push   ebp
 80487d6:	89 e5                	mov    ebp,esp
 80487d8:	83 ec 58             	sub    esp,0x58
 80487db:	89 f2                	mov    edx,esi
 80487dd:	83 c6 00             	add    esi,0x0
 80487e0:	89 56 04             	mov    DWORD PTR [esi+0x4],edx
 80487e3:	c7 06 06 84 04 08    	mov    DWORD PTR [esi],0x8048406
 80487e9:	89 75 ac             	mov    DWORD PTR [ebp-0x54],esi
 80487ec:	83 c6 08             	add    esi,0x8
 80487ef:	89 75 b0             	mov    DWORD PTR [ebp-0x50],esi
 80487f2:	83 c6 00             	add    esi,0x0
 80487f5:	57                   	push   edi
 80487f6:	ff 75 b0             	push   DWORD PTR [ebp-0x50]
 80487f9:	8b 45 ac             	mov    eax,DWORD PTR [ebp-0x54]
 80487fc:	8b 78 04             	mov    edi,DWORD PTR [eax+0x4]
 80487ff:	ff 10                	call   DWORD PTR [eax]
 8048801:	89 45 e4             	mov    DWORD PTR [ebp-0x1c],eax
 8048804:	83 c4 04             	add    esp,0x4
 8048807:	5f                   	pop    edi
 8048808:	8b 45 e4             	mov    eax,DWORD PTR [ebp-0x1c]
 804880b:	89 45 b4             	mov    DWORD PTR [ebp-0x4c],eax
 804880e:	c7 45 b8 2f 00 00 00 	mov    DWORD PTR [ebp-0x48],0x2f
 8048815:	8b 5d b8             	mov    ebx,DWORD PTR [ebp-0x48]
 8048818:	8b 45 b4             	mov    eax,DWORD PTR [ebp-0x4c]
 804881b:	29 d8                	sub    eax,ebx
 804881d:	89 45 c4             	mov    DWORD PTR [ebp-0x3c],eax
 8048820:	c7 45 bc 3a 00 00 00 	mov    DWORD PTR [ebp-0x44],0x3a
 8048827:	8b 45 e4             	mov    eax,DWORD PTR [ebp-0x1c]
 804882a:	89 45 c0             	mov    DWORD PTR [ebp-0x40],eax
 804882d:	8b 5d c0             	mov    ebx,DWORD PTR [ebp-0x40]
 8048830:	8b 45 bc             	mov    eax,DWORD PTR [ebp-0x44]
 8048833:	29 d8                	sub    eax,ebx
 8048835:	89 45 c8             	mov    DWORD PTR [ebp-0x38],eax
 8048838:	8b 5d c8             	mov    ebx,DWORD PTR [ebp-0x38]
 804883b:	8b 45 c4             	mov    eax,DWORD PTR [ebp-0x3c]
 804883e:	f7 e3                	mul    ebx
 8048840:	89 45 cc             	mov    DWORD PTR [ebp-0x34],eax
 8048843:	c7 45 d0 00 00 00 00 	mov    DWORD PTR [ebp-0x30],0x0
 804884a:	8b 5d d0             	mov    ebx,DWORD PTR [ebp-0x30]
 804884d:	8b 45 cc             	mov    eax,DWORD PTR [ebp-0x34]
 8048850:	31 c9                	xor    ecx,ecx
 8048852:	39 d8                	cmp    eax,ebx
 8048854:	0f 9f c1             	setg   cl
 8048857:	89 c8                	mov    eax,ecx
 8048859:	89 45 d4             	mov    DWORD PTR [ebp-0x2c],eax
 804885c:	c7 45 d8 01 00 00 00 	mov    DWORD PTR [ebp-0x28],0x1
 8048863:	8b 45 d4             	mov    eax,DWORD PTR [ebp-0x2c]
 8048866:	8b 5d d8             	mov    ebx,DWORD PTR [ebp-0x28]
 8048869:	39 d8                	cmp    eax,ebx
 804886b:	75 55                	jne    80488c2 <frame_dummy+0x502>
 804886d:	8b 07                	mov    eax,DWORD PTR [edi]
 804886f:	89 45 f8             	mov    DWORD PTR [ebp-0x8],eax
 8048872:	8b 45 08             	mov    eax,DWORD PTR [ebp+0x8]
 8048875:	89 45 dc             	mov    DWORD PTR [ebp-0x24],eax
 8048878:	c7 45 e0 0a 00 00 00 	mov    DWORD PTR [ebp-0x20],0xa
 804887f:	8b 5d e0             	mov    ebx,DWORD PTR [ebp-0x20]
 8048882:	8b 45 dc             	mov    eax,DWORD PTR [ebp-0x24]
 8048885:	f7 e3                	mul    ebx
 8048887:	89 45 f0             	mov    DWORD PTR [ebp-0x10],eax
 804888a:	8b 45 e4             	mov    eax,DWORD PTR [ebp-0x1c]
 804888d:	89 45 e8             	mov    DWORD PTR [ebp-0x18],eax
 8048890:	c7 45 ec 30 00 00 00 	mov    DWORD PTR [ebp-0x14],0x30
 8048897:	8b 5d ec             	mov    ebx,DWORD PTR [ebp-0x14]
 804889a:	8b 45 e8             	mov    eax,DWORD PTR [ebp-0x18]
 804889d:	29 d8                	sub    eax,ebx
 804889f:	89 45 f4             	mov    DWORD PTR [ebp-0xc],eax
 80488a2:	8b 5d f4             	mov    ebx,DWORD PTR [ebp-0xc]
 80488a5:	8b 45 f0             	mov    eax,DWORD PTR [ebp-0x10]
 80488a8:	01 d8                	add    eax,ebx
 80488aa:	89 45 fc             	mov    DWORD PTR [ebp-0x4],eax
 80488ad:	57                   	push   edi
 80488ae:	ff 75 fc             	push   DWORD PTR [ebp-0x4]
 80488b1:	8b 45 f8             	mov    eax,DWORD PTR [ebp-0x8]
 80488b4:	8b 78 04             	mov    edi,DWORD PTR [eax+0x4]
 80488b7:	ff 10                	call   DWORD PTR [eax]
 80488b9:	89 45 a8             	mov    DWORD PTR [ebp-0x58],eax
 80488bc:	83 c4 04             	add    esp,0x4
 80488bf:	5f                   	pop    edi
 80488c0:	eb 06                	jmp    80488c8 <frame_dummy+0x508>
 80488c2:	8b 45 08             	mov    eax,DWORD PTR [ebp+0x8]
 80488c5:	89 45 a8             	mov    DWORD PTR [ebp-0x58],eax
 80488c8:	8b 45 a8             	mov    eax,DWORD PTR [ebp-0x58]
 80488cb:	83 c4 58             	add    esp,0x58
 80488ce:	5d                   	pop    ebp
 80488cf:	c3                   	ret    
 80488d0:	55                   	push   ebp
 80488d1:	89 e5                	mov    ebp,esp
 80488d3:	83 ec 78             	sub    esp,0x78
 80488d6:	89 f2                	mov    edx,esi
 80488d8:	8b 45 e0             	mov    eax,DWORD PTR [ebp-0x20]
 80488db:	89 06                	mov    DWORD PTR [esi],eax
 80488dd:	83 c6 04             	add    esi,0x4
 80488e0:	89 56 04             	mov    DWORD PTR [esi+0x4],edx
 80488e3:	c7 06 d5 87 04 08    	mov    DWORD PTR [esi],0x80487d5
 80488e9:	89 75 e0             	mov    DWORD PTR [ebp-0x20],esi
 80488ec:	83 c6 08             	add    esi,0x8
 80488ef:	89 f2                	mov    edx,esi
 80488f1:	8b 07                	mov    eax,DWORD PTR [edi]
 80488f3:	89 06                	mov    DWORD PTR [esi],eax
 80488f5:	83 c6 04             	add    esi,0x4
 80488f8:	89 56 04             	mov    DWORD PTR [esi+0x4],edx
 80488fb:	c7 06 d0 88 04 08    	mov    DWORD PTR [esi],0x80488d0
 8048901:	89 37                	mov    DWORD PTR [edi],esi
 8048903:	83 c6 08             	add    esi,0x8
 8048906:	89 f2                	mov    edx,esi
 8048908:	8b 45 90             	mov    eax,DWORD PTR [ebp-0x70]
 804890b:	89 06                	mov    DWORD PTR [esi],eax
 804890d:	83 c6 04             	add    esi,0x4
 8048910:	89 56 04             	mov    DWORD PTR [esi+0x4],edx
 8048913:	c7 06 c9 86 04 08    	mov    DWORD PTR [esi],0x80486c9
 8048919:	89 75 8c             	mov    DWORD PTR [ebp-0x74],esi
 804891c:	83 c6 08             	add    esi,0x8
 804891f:	89 f2                	mov    edx,esi
 8048921:	8b 45 90             	mov    eax,DWORD PTR [ebp-0x70]
 8048924:	89 06                	mov    DWORD PTR [esi],eax
 8048926:	8b 45 94             	mov    eax,DWORD PTR [ebp-0x6c]
 8048929:	89 46 04             	mov    DWORD PTR [esi+0x4],eax
 804892c:	83 c6 08             	add    esi,0x8
 804892f:	89 56 04             	mov    DWORD PTR [esi+0x4],edx
 8048932:	c7 06 75 85 04 08    	mov    DWORD PTR [esi],0x8048575
 8048938:	89 75 90             	mov    DWORD PTR [ebp-0x70],esi
 804893b:	83 c6 08             	add    esi,0x8
 804893e:	89 f2                	mov    edx,esi
 8048940:	83 c6 00             	add    esi,0x0
 8048943:	89 56 04             	mov    DWORD PTR [esi+0x4],edx
 8048946:	c7 06 2c 85 04 08    	mov    DWORD PTR [esi],0x804852c
 804894c:	89 75 94             	mov    DWORD PTR [ebp-0x6c],esi
 804894f:	83 c6 08             	add    esi,0x8
 8048952:	89 f2                	mov    edx,esi
 8048954:	83 c6 00             	add    esi,0x0
 8048957:	89 56 04             	mov    DWORD PTR [esi+0x4],edx
 804895a:	c7 06 23 90 04 08    	mov    DWORD PTR [esi],0x8049023
 8048960:	89 75 98             	mov    DWORD PTR [ebp-0x68],esi
 8048963:	83 c6 08             	add    esi,0x8
 8048966:	89 f2                	mov    edx,esi
 8048968:	83 c6 00             	add    esi,0x0
 804896b:	89 56 04             	mov    DWORD PTR [esi+0x4],edx
 804896e:	c7 06 06 84 04 08    	mov    DWORD PTR [esi],0x8048406
 8048974:	89 75 9c             	mov    DWORD PTR [ebp-0x64],esi
 8048977:	83 c6 08             	add    esi,0x8
 804897a:	89 75 a0             	mov    DWORD PTR [ebp-0x60],esi
 804897d:	83 c6 00             	add    esi,0x0
 8048980:	57                   	push   edi
 8048981:	ff 75 a0             	push   DWORD PTR [ebp-0x60]
 8048984:	8b 45 9c             	mov    eax,DWORD PTR [ebp-0x64]
 8048987:	8b 78 04             	mov    edi,DWORD PTR [eax+0x4]
 804898a:	ff 10                	call   DWORD PTR [eax]
 804898c:	89 45 e4             	mov    DWORD PTR [ebp-0x1c],eax
 804898f:	83 c4 04             	add    esp,0x4
 8048992:	5f                   	pop    edi
 8048993:	8b 45 e4             	mov    eax,DWORD PTR [ebp-0x1c]
 8048996:	89 45 a4             	mov    DWORD PTR [ebp-0x5c],eax
 8048999:	c7 45 a8 2d 00 00 00 	mov    DWORD PTR [ebp-0x58],0x2d
 80489a0:	8b 45 a4             	mov    eax,DWORD PTR [ebp-0x5c]
 80489a3:	8b 5d a8             	mov    ebx,DWORD PTR [ebp-0x58]
 80489a6:	39 d8                	cmp    eax,ebx
 80489a8:	75 2d                	jne    80489d7 <frame_dummy+0x617>
 80489aa:	8b 45 e0             	mov    eax,DWORD PTR [ebp-0x20]
 80489ad:	89 45 ac             	mov    DWORD PTR [ebp-0x54],eax
 80489b0:	c7 45 b0 00 00 00 00 	mov    DWORD PTR [ebp-0x50],0x0
 80489b7:	57                   	push   edi
 80489b8:	ff 75 b0             	push   DWORD PTR [ebp-0x50]
 80489bb:	8b 45 ac             	mov    eax,DWORD PTR [ebp-0x54]
 80489be:	8b 78 04             	mov    edi,DWORD PTR [eax+0x4]
 80489c1:	ff 10                	call   DWORD PTR [eax]
 80489c3:	89 45 b4             	mov    DWORD PTR [ebp-0x4c],eax
 80489c6:	83 c4 04             	add    esp,0x4
 80489c9:	5f                   	pop    edi
 80489ca:	8b 45 b4             	mov    eax,DWORD PTR [ebp-0x4c]
 80489cd:	f7 d8                	neg    eax
 80489cf:	89 45 88             	mov    DWORD PTR [ebp-0x78],eax
 80489d2:	e9 b6 00 00 00       	jmp    8048a8d <frame_dummy+0x6cd>
 80489d7:	8b 45 e4             	mov    eax,DWORD PTR [ebp-0x1c]
 80489da:	89 45 b8             	mov    DWORD PTR [ebp-0x48],eax
 80489dd:	c7 45 bc 2f 00 00 00 	mov    DWORD PTR [ebp-0x44],0x2f
 80489e4:	8b 5d bc             	mov    ebx,DWORD PTR [ebp-0x44]
 80489e7:	8b 45 b8             	mov    eax,DWORD PTR [ebp-0x48]
 80489ea:	29 d8                	sub    eax,ebx
 80489ec:	89 45 c8             	mov    DWORD PTR [ebp-0x38],eax
 80489ef:	c7 45 c0 3a 00 00 00 	mov    DWORD PTR [ebp-0x40],0x3a
 80489f6:	8b 45 e4             	mov    eax,DWORD PTR [ebp-0x1c]
 80489f9:	89 45 c4             	mov    DWORD PTR [ebp-0x3c],eax
 80489fc:	8b 5d c4             	mov    ebx,DWORD PTR [ebp-0x3c]
 80489ff:	8b 45 c0             	mov    eax,DWORD PTR [ebp-0x40]
 8048a02:	29 d8                	sub    eax,ebx
 8048a04:	89 45 cc             	mov    DWORD PTR [ebp-0x34],eax
 8048a07:	8b 5d cc             	mov    ebx,DWORD PTR [ebp-0x34]
 8048a0a:	8b 45 c8             	mov    eax,DWORD PTR [ebp-0x38]
 8048a0d:	f7 e3                	mul    ebx
 8048a0f:	89 45 d0             	mov    DWORD PTR [ebp-0x30],eax
 8048a12:	c7 45 d4 00 00 00 00 	mov    DWORD PTR [ebp-0x2c],0x0
 8048a19:	8b 5d d4             	mov    ebx,DWORD PTR [ebp-0x2c]
 8048a1c:	8b 45 d0             	mov    eax,DWORD PTR [ebp-0x30]
 8048a1f:	31 c9                	xor    ecx,ecx
 8048a21:	39 d8                	cmp    eax,ebx
 8048a23:	0f 9f c1             	setg   cl
 8048a26:	89 c8                	mov    eax,ecx
 8048a28:	89 45 d8             	mov    DWORD PTR [ebp-0x28],eax
 8048a2b:	c7 45 dc 01 00 00 00 	mov    DWORD PTR [ebp-0x24],0x1
 8048a32:	8b 45 d8             	mov    eax,DWORD PTR [ebp-0x28]
 8048a35:	8b 5d dc             	mov    ebx,DWORD PTR [ebp-0x24]
 8048a38:	39 d8                	cmp    eax,ebx
 8048a3a:	75 33                	jne    8048a6f <frame_dummy+0x6af>
 8048a3c:	8b 45 e0             	mov    eax,DWORD PTR [ebp-0x20]
 8048a3f:	89 45 f0             	mov    DWORD PTR [ebp-0x10],eax
 8048a42:	8b 45 e4             	mov    eax,DWORD PTR [ebp-0x1c]
 8048a45:	89 45 e8             	mov    DWORD PTR [ebp-0x18],eax
 8048a48:	c7 45 ec 30 00 00 00 	mov    DWORD PTR [ebp-0x14],0x30
 8048a4f:	8b 5d ec             	mov    ebx,DWORD PTR [ebp-0x14]
 8048a52:	8b 45 e8             	mov    eax,DWORD PTR [ebp-0x18]
 8048a55:	29 d8                	sub    eax,ebx
 8048a57:	89 45 f4             	mov    DWORD PTR [ebp-0xc],eax
 8048a5a:	57                   	push   edi
 8048a5b:	ff 75 f4             	push   DWORD PTR [ebp-0xc]
 8048a5e:	8b 45 f0             	mov    eax,DWORD PTR [ebp-0x10]
 8048a61:	8b 78 04             	mov    edi,DWORD PTR [eax+0x4]
 8048a64:	ff 10                	call   DWORD PTR [eax]
 8048a66:	89 45 88             	mov    DWORD PTR [ebp-0x78],eax
 8048a69:	83 c4 04             	add    esp,0x4
 8048a6c:	5f                   	pop    edi
 8048a6d:	eb 1e                	jmp    8048a8d <frame_dummy+0x6cd>
 8048a6f:	8b 07                	mov    eax,DWORD PTR [edi]
 8048a71:	89 45 f8             	mov    DWORD PTR [ebp-0x8],eax
 8048a74:	8b 45 08             	mov    eax,DWORD PTR [ebp+0x8]
 8048a77:	89 45 fc             	mov    DWORD PTR [ebp-0x4],eax
 8048a7a:	57                   	push   edi
 8048a7b:	ff 75 fc             	push   DWORD PTR [ebp-0x4]
 8048a7e:	8b 45 f8             	mov    eax,DWORD PTR [ebp-0x8]
 8048a81:	8b 78 04             	mov    edi,DWORD PTR [eax+0x4]
 8048a84:	ff 10                	call   DWORD PTR [eax]
 8048a86:	89 45 88             	mov    DWORD PTR [ebp-0x78],eax
 8048a89:	83 c4 04             	add    esp,0x4
 8048a8c:	5f                   	pop    edi
 8048a8d:	8b 45 88             	mov    eax,DWORD PTR [ebp-0x78]
 8048a90:	83 c4 78             	add    esp,0x78
 8048a93:	5d                   	pop    ebp
 8048a94:	c3                   	ret    
 8048a95:	55                   	push   ebp
 8048a96:	89 e5                	mov    ebp,esp
 8048a98:	83 ec 6c             	sub    esp,0x6c
 8048a9b:	89 f2                	mov    edx,esi
 8048a9d:	83 c6 00             	add    esi,0x0
 8048aa0:	89 56 04             	mov    DWORD PTR [esi+0x4],edx
 8048aa3:	c7 06 06 84 04 08    	mov    DWORD PTR [esi],0x8048406
 8048aa9:	89 75 98             	mov    DWORD PTR [ebp-0x68],esi
 8048aac:	83 c6 08             	add    esi,0x8
 8048aaf:	89 75 9c             	mov    DWORD PTR [ebp-0x64],esi
 8048ab2:	83 c6 00             	add    esi,0x0
 8048ab5:	57                   	push   edi
 8048ab6:	ff 75 9c             	push   DWORD PTR [ebp-0x64]
 8048ab9:	8b 45 98             	mov    eax,DWORD PTR [ebp-0x68]
 8048abc:	8b 78 04             	mov    edi,DWORD PTR [eax+0x4]
 8048abf:	ff 10                	call   DWORD PTR [eax]
 8048ac1:	89 45 d0             	mov    DWORD PTR [ebp-0x30],eax
 8048ac4:	83 c4 04             	add    esp,0x4
 8048ac7:	5f                   	pop    edi
 8048ac8:	8b 45 d0             	mov    eax,DWORD PTR [ebp-0x30]
 8048acb:	89 45 a0             	mov    DWORD PTR [ebp-0x60],eax
 8048ace:	c7 45 a4 2f 00 00 00 	mov    DWORD PTR [ebp-0x5c],0x2f
 8048ad5:	8b 5d a4             	mov    ebx,DWORD PTR [ebp-0x5c]
 8048ad8:	8b 45 a0             	mov    eax,DWORD PTR [ebp-0x60]
 8048adb:	29 d8                	sub    eax,ebx
 8048add:	89 45 b0             	mov    DWORD PTR [ebp-0x50],eax
 8048ae0:	c7 45 a8 3a 00 00 00 	mov    DWORD PTR [ebp-0x58],0x3a
 8048ae7:	8b 45 d0             	mov    eax,DWORD PTR [ebp-0x30]
 8048aea:	89 45 ac             	mov    DWORD PTR [ebp-0x54],eax
 8048aed:	8b 5d ac             	mov    ebx,DWORD PTR [ebp-0x54]
 8048af0:	8b 45 a8             	mov    eax,DWORD PTR [ebp-0x58]
 8048af3:	29 d8                	sub    eax,ebx
 8048af5:	89 45 b4             	mov    DWORD PTR [ebp-0x4c],eax
 8048af8:	8b 5d b4             	mov    ebx,DWORD PTR [ebp-0x4c]
 8048afb:	8b 45 b0             	mov    eax,DWORD PTR [ebp-0x50]
 8048afe:	f7 e3                	mul    ebx
 8048b00:	89 45 b8             	mov    DWORD PTR [ebp-0x48],eax
 8048b03:	c7 45 bc 00 00 00 00 	mov    DWORD PTR [ebp-0x44],0x0
 8048b0a:	8b 5d bc             	mov    ebx,DWORD PTR [ebp-0x44]
 8048b0d:	8b 45 b8             	mov    eax,DWORD PTR [ebp-0x48]
 8048b10:	31 c9                	xor    ecx,ecx
 8048b12:	39 d8                	cmp    eax,ebx
 8048b14:	0f 9f c1             	setg   cl
 8048b17:	89 c8                	mov    eax,ecx
 8048b19:	89 45 c0             	mov    DWORD PTR [ebp-0x40],eax
 8048b1c:	c7 45 c4 01 00 00 00 	mov    DWORD PTR [ebp-0x3c],0x1
 8048b23:	8b 45 c0             	mov    eax,DWORD PTR [ebp-0x40]
 8048b26:	8b 5d c4             	mov    ebx,DWORD PTR [ebp-0x3c]
 8048b29:	39 d8                	cmp    eax,ebx
 8048b2b:	0f 85 97 00 00 00    	jne    8048bc8 <frame_dummy+0x808>
 8048b31:	8b 07                	mov    eax,DWORD PTR [edi]
 8048b33:	89 45 f4             	mov    DWORD PTR [ebp-0xc],eax
 8048b36:	8b 45 08             	mov    eax,DWORD PTR [ebp+0x8]
 8048b39:	89 45 c8             	mov    DWORD PTR [ebp-0x38],eax
 8048b3c:	a1 24 b0 04 08       	mov    eax,ds:0x804b024
 8048b41:	89 45 cc             	mov    DWORD PTR [ebp-0x34],eax
 8048b44:	d9 45 c8             	fld    DWORD PTR [ebp-0x38]
 8048b47:	d9 45 cc             	fld    DWORD PTR [ebp-0x34]
 8048b4a:	de c9                	fmulp  st(1),st
 8048b4c:	d9 5d f8             	fstp   DWORD PTR [ebp-0x8]
 8048b4f:	8b 45 0c             	mov    eax,DWORD PTR [ebp+0xc]
 8048b52:	89 45 ec             	mov    DWORD PTR [ebp-0x14],eax
 8048b55:	8b 45 08             	mov    eax,DWORD PTR [ebp+0x8]
 8048b58:	89 45 e4             	mov    DWORD PTR [ebp-0x1c],eax
 8048b5b:	89 f2                	mov    edx,esi
 8048b5d:	83 c6 00             	add    esi,0x0
 8048b60:	89 56 04             	mov    DWORD PTR [esi+0x4],edx
 8048b63:	c7 06 25 84 04 08    	mov    DWORD PTR [esi],0x8048425
 8048b69:	89 75 dc             	mov    DWORD PTR [ebp-0x24],esi
 8048b6c:	83 c6 08             	add    esi,0x8
 8048b6f:	8b 45 d0             	mov    eax,DWORD PTR [ebp-0x30]
 8048b72:	89 45 d4             	mov    DWORD PTR [ebp-0x2c],eax
 8048b75:	c7 45 d8 30 00 00 00 	mov    DWORD PTR [ebp-0x28],0x30
 8048b7c:	8b 5d d8             	mov    ebx,DWORD PTR [ebp-0x28]
 8048b7f:	8b 45 d4             	mov    eax,DWORD PTR [ebp-0x2c]
 8048b82:	29 d8                	sub    eax,ebx
 8048b84:	89 45 e0             	mov    DWORD PTR [ebp-0x20],eax
 8048b87:	57                   	push   edi
 8048b88:	ff 75 e0             	push   DWORD PTR [ebp-0x20]
 8048b8b:	8b 45 dc             	mov    eax,DWORD PTR [ebp-0x24]
 8048b8e:	8b 78 04             	mov    edi,DWORD PTR [eax+0x4]
 8048b91:	ff 10                	call   DWORD PTR [eax]
 8048b93:	89 45 e8             	mov    DWORD PTR [ebp-0x18],eax
 8048b96:	83 c4 04             	add    esp,0x4
 8048b99:	5f                   	pop    edi
 8048b9a:	d9 45 e4             	fld    DWORD PTR [ebp-0x1c]
 8048b9d:	d9 45 e8             	fld    DWORD PTR [ebp-0x18]
 8048ba0:	de c9                	fmulp  st(1),st
 8048ba2:	d9 5d f0             	fstp   DWORD PTR [ebp-0x10]
 8048ba5:	d9 45 ec             	fld    DWORD PTR [ebp-0x14]
 8048ba8:	d9 45 f0             	fld    DWORD PTR [ebp-0x10]
 8048bab:	de c1                	faddp  st(1),st
 8048bad:	d9 5d fc             	fstp   DWORD PTR [ebp-0x4]
 8048bb0:	57                   	push   edi
 8048bb1:	ff 75 fc             	push   DWORD PTR [ebp-0x4]
 8048bb4:	ff 75 f8             	push   DWORD PTR [ebp-0x8]
 8048bb7:	8b 45 f4             	mov    eax,DWORD PTR [ebp-0xc]
 8048bba:	8b 78 04             	mov    edi,DWORD PTR [eax+0x4]
 8048bbd:	ff 10                	call   DWORD PTR [eax]
 8048bbf:	89 45 94             	mov    DWORD PTR [ebp-0x6c],eax
 8048bc2:	83 c4 08             	add    esp,0x8
 8048bc5:	5f                   	pop    edi
 8048bc6:	eb 06                	jmp    8048bce <frame_dummy+0x80e>
 8048bc8:	8b 45 0c             	mov    eax,DWORD PTR [ebp+0xc]
 8048bcb:	89 45 94             	mov    DWORD PTR [ebp-0x6c],eax
 8048bce:	8b 45 94             	mov    eax,DWORD PTR [ebp-0x6c]
 8048bd1:	83 c4 6c             	add    esp,0x6c
 8048bd4:	5d                   	pop    ebp
 8048bd5:	c3                   	ret    
 8048bd6:	55                   	push   ebp
 8048bd7:	89 e5                	mov    ebp,esp
 8048bd9:	83 ec 6c             	sub    esp,0x6c
 8048bdc:	89 f2                	mov    edx,esi
 8048bde:	83 c6 00             	add    esi,0x0
 8048be1:	89 56 04             	mov    DWORD PTR [esi+0x4],edx
 8048be4:	c7 06 06 84 04 08    	mov    DWORD PTR [esi],0x8048406
 8048bea:	89 75 98             	mov    DWORD PTR [ebp-0x68],esi
 8048bed:	83 c6 08             	add    esi,0x8
 8048bf0:	89 75 9c             	mov    DWORD PTR [ebp-0x64],esi
 8048bf3:	83 c6 00             	add    esi,0x0
 8048bf6:	57                   	push   edi
 8048bf7:	ff 75 9c             	push   DWORD PTR [ebp-0x64]
 8048bfa:	8b 45 98             	mov    eax,DWORD PTR [ebp-0x68]
 8048bfd:	8b 78 04             	mov    edi,DWORD PTR [eax+0x4]
 8048c00:	ff 10                	call   DWORD PTR [eax]
 8048c02:	89 45 d0             	mov    DWORD PTR [ebp-0x30],eax
 8048c05:	83 c4 04             	add    esp,0x4
 8048c08:	5f                   	pop    edi
 8048c09:	8b 45 d0             	mov    eax,DWORD PTR [ebp-0x30]
 8048c0c:	89 45 a0             	mov    DWORD PTR [ebp-0x60],eax
 8048c0f:	c7 45 a4 2f 00 00 00 	mov    DWORD PTR [ebp-0x5c],0x2f
 8048c16:	8b 5d a4             	mov    ebx,DWORD PTR [ebp-0x5c]
 8048c19:	8b 45 a0             	mov    eax,DWORD PTR [ebp-0x60]
 8048c1c:	29 d8                	sub    eax,ebx
 8048c1e:	89 45 b0             	mov    DWORD PTR [ebp-0x50],eax
 8048c21:	c7 45 a8 3a 00 00 00 	mov    DWORD PTR [ebp-0x58],0x3a
 8048c28:	8b 45 d0             	mov    eax,DWORD PTR [ebp-0x30]
 8048c2b:	89 45 ac             	mov    DWORD PTR [ebp-0x54],eax
 8048c2e:	8b 5d ac             	mov    ebx,DWORD PTR [ebp-0x54]
 8048c31:	8b 45 a8             	mov    eax,DWORD PTR [ebp-0x58]
 8048c34:	29 d8                	sub    eax,ebx
 8048c36:	89 45 b4             	mov    DWORD PTR [ebp-0x4c],eax
 8048c39:	8b 5d b4             	mov    ebx,DWORD PTR [ebp-0x4c]
 8048c3c:	8b 45 b0             	mov    eax,DWORD PTR [ebp-0x50]
 8048c3f:	f7 e3                	mul    ebx
 8048c41:	89 45 b8             	mov    DWORD PTR [ebp-0x48],eax
 8048c44:	c7 45 bc 00 00 00 00 	mov    DWORD PTR [ebp-0x44],0x0
 8048c4b:	8b 5d bc             	mov    ebx,DWORD PTR [ebp-0x44]
 8048c4e:	8b 45 b8             	mov    eax,DWORD PTR [ebp-0x48]
 8048c51:	31 c9                	xor    ecx,ecx
 8048c53:	39 d8                	cmp    eax,ebx
 8048c55:	0f 9f c1             	setg   cl
 8048c58:	89 c8                	mov    eax,ecx
 8048c5a:	89 45 c0             	mov    DWORD PTR [ebp-0x40],eax
 8048c5d:	c7 45 c4 01 00 00 00 	mov    DWORD PTR [ebp-0x3c],0x1
 8048c64:	8b 45 c0             	mov    eax,DWORD PTR [ebp-0x40]
 8048c67:	8b 5d c4             	mov    ebx,DWORD PTR [ebp-0x3c]
 8048c6a:	39 d8                	cmp    eax,ebx
 8048c6c:	75 7d                	jne    8048ceb <frame_dummy+0x92b>
 8048c6e:	8b 07                	mov    eax,DWORD PTR [edi]
 8048c70:	89 45 ec             	mov    DWORD PTR [ebp-0x14],eax
 8048c73:	8b 45 08             	mov    eax,DWORD PTR [ebp+0x8]
 8048c76:	89 45 c8             	mov    DWORD PTR [ebp-0x38],eax
 8048c79:	a1 28 b0 04 08       	mov    eax,ds:0x804b028
 8048c7e:	89 45 cc             	mov    DWORD PTR [ebp-0x34],eax
 8048c81:	d9 45 c8             	fld    DWORD PTR [ebp-0x38]
 8048c84:	d9 45 cc             	fld    DWORD PTR [ebp-0x34]
 8048c87:	de c9                	fmulp  st(1),st
 8048c89:	d9 5d e4             	fstp   DWORD PTR [ebp-0x1c]
 8048c8c:	89 f2                	mov    edx,esi
 8048c8e:	83 c6 00             	add    esi,0x0
 8048c91:	89 56 04             	mov    DWORD PTR [esi+0x4],edx
 8048c94:	c7 06 25 84 04 08    	mov    DWORD PTR [esi],0x8048425
 8048c9a:	89 75 dc             	mov    DWORD PTR [ebp-0x24],esi
 8048c9d:	83 c6 08             	add    esi,0x8
 8048ca0:	8b 45 d0             	mov    eax,DWORD PTR [ebp-0x30]
 8048ca3:	89 45 d4             	mov    DWORD PTR [ebp-0x2c],eax
 8048ca6:	c7 45 d8 30 00 00 00 	mov    DWORD PTR [ebp-0x28],0x30
 8048cad:	8b 5d d8             	mov    ebx,DWORD PTR [ebp-0x28]
 8048cb0:	8b 45 d4             	mov    eax,DWORD PTR [ebp-0x2c]
 8048cb3:	29 d8                	sub    eax,ebx
 8048cb5:	89 45 e0             	mov    DWORD PTR [ebp-0x20],eax
 8048cb8:	57                   	push   edi
 8048cb9:	ff 75 e0             	push   DWORD PTR [ebp-0x20]
 8048cbc:	8b 45 dc             	mov    eax,DWORD PTR [ebp-0x24]
 8048cbf:	8b 78 04             	mov    edi,DWORD PTR [eax+0x4]
 8048cc2:	ff 10                	call   DWORD PTR [eax]
 8048cc4:	89 45 e8             	mov    DWORD PTR [ebp-0x18],eax
 8048cc7:	83 c4 04             	add    esp,0x4
 8048cca:	5f                   	pop    edi
 8048ccb:	d9 45 e4             	fld    DWORD PTR [ebp-0x1c]
 8048cce:	d9 45 e8             	fld    DWORD PTR [ebp-0x18]
 8048cd1:	de c1                	faddp  st(1),st
 8048cd3:	d9 5d f0             	fstp   DWORD PTR [ebp-0x10]
 8048cd6:	57                   	push   edi
 8048cd7:	ff 75 f0             	push   DWORD PTR [ebp-0x10]
 8048cda:	8b 45 ec             	mov    eax,DWORD PTR [ebp-0x14]
 8048cdd:	8b 78 04             	mov    edi,DWORD PTR [eax+0x4]
 8048ce0:	ff 10                	call   DWORD PTR [eax]
 8048ce2:	89 45 94             	mov    DWORD PTR [ebp-0x6c],eax
 8048ce5:	83 c4 04             	add    esp,0x4
 8048ce8:	5f                   	pop    edi
 8048ce9:	eb 2a                	jmp    8048d15 <frame_dummy+0x955>
 8048ceb:	8b 47 04             	mov    eax,DWORD PTR [edi+0x4]
 8048cee:	89 45 f4             	mov    DWORD PTR [ebp-0xc],eax
 8048cf1:	a1 2c b0 04 08       	mov    eax,ds:0x804b02c
 8048cf6:	89 45 f8             	mov    DWORD PTR [ebp-0x8],eax
 8048cf9:	8b 45 08             	mov    eax,DWORD PTR [ebp+0x8]
 8048cfc:	89 45 fc             	mov    DWORD PTR [ebp-0x4],eax
 8048cff:	57                   	push   edi
 8048d00:	ff 75 fc             	push   DWORD PTR [ebp-0x4]
 8048d03:	ff 75 f8             	push   DWORD PTR [ebp-0x8]
 8048d06:	8b 45 f4             	mov    eax,DWORD PTR [ebp-0xc]
 8048d09:	8b 78 04             	mov    edi,DWORD PTR [eax+0x4]
 8048d0c:	ff 10                	call   DWORD PTR [eax]
 8048d0e:	89 45 94             	mov    DWORD PTR [ebp-0x6c],eax
 8048d11:	83 c4 08             	add    esp,0x8
 8048d14:	5f                   	pop    edi
 8048d15:	8b 45 94             	mov    eax,DWORD PTR [ebp-0x6c]
 8048d18:	83 c4 6c             	add    esp,0x6c
 8048d1b:	5d                   	pop    ebp
 8048d1c:	c3                   	ret    
 8048d1d:	55                   	push   ebp
 8048d1e:	89 e5                	mov    ebp,esp
 8048d20:	81 ec 8c 00 00 00    	sub    esp,0x8c
 8048d26:	89 f2                	mov    edx,esi
 8048d28:	8b 85 78 ff ff ff    	mov    eax,DWORD PTR [ebp-0x88]
 8048d2e:	89 06                	mov    DWORD PTR [esi],eax
 8048d30:	83 c6 04             	add    esi,0x4
 8048d33:	89 56 04             	mov    DWORD PTR [esi+0x4],edx
 8048d36:	c7 06 95 8a 04 08    	mov    DWORD PTR [esi],0x8048a95
 8048d3c:	89 b5 78 ff ff ff    	mov    DWORD PTR [ebp-0x88],esi
 8048d42:	83 c6 08             	add    esi,0x8
 8048d45:	89 f2                	mov    edx,esi
 8048d47:	8b 07                	mov    eax,DWORD PTR [edi]
 8048d49:	89 06                	mov    DWORD PTR [esi],eax
 8048d4b:	83 c6 04             	add    esi,0x4
 8048d4e:	89 56 04             	mov    DWORD PTR [esi+0x4],edx
 8048d51:	c7 06 1d 8d 04 08    	mov    DWORD PTR [esi],0x8048d1d
 8048d57:	89 37                	mov    DWORD PTR [edi],esi
 8048d59:	83 c6 08             	add    esi,0x8
 8048d5c:	89 f2                	mov    edx,esi
 8048d5e:	8b 85 7c ff ff ff    	mov    eax,DWORD PTR [ebp-0x84]
 8048d64:	89 06                	mov    DWORD PTR [esi],eax
 8048d66:	83 c6 04             	add    esi,0x4
 8048d69:	89 56 04             	mov    DWORD PTR [esi+0x4],edx
 8048d6c:	c7 06 d0 88 04 08    	mov    DWORD PTR [esi],0x80488d0
 8048d72:	89 b5 7c ff ff ff    	mov    DWORD PTR [ebp-0x84],esi
 8048d78:	83 c6 08             	add    esi,0x8
 8048d7b:	89 f2                	mov    edx,esi
 8048d7d:	8b 45 84             	mov    eax,DWORD PTR [ebp-0x7c]
 8048d80:	89 06                	mov    DWORD PTR [esi],eax
 8048d82:	83 c6 04             	add    esi,0x4
 8048d85:	89 56 04             	mov    DWORD PTR [esi+0x4],edx
 8048d88:	c7 06 c9 86 04 08    	mov    DWORD PTR [esi],0x80486c9
 8048d8e:	89 75 80             	mov    DWORD PTR [ebp-0x80],esi
 8048d91:	83 c6 08             	add    esi,0x8
 8048d94:	89 f2                	mov    edx,esi
 8048d96:	8b 45 84             	mov    eax,DWORD PTR [ebp-0x7c]
 8048d99:	89 06                	mov    DWORD PTR [esi],eax
 8048d9b:	8b 45 88             	mov    eax,DWORD PTR [ebp-0x78]
 8048d9e:	89 46 04             	mov    DWORD PTR [esi+0x4],eax
 8048da1:	83 c6 08             	add    esi,0x8
 8048da4:	89 56 04             	mov    DWORD PTR [esi+0x4],edx
 8048da7:	c7 06 75 85 04 08    	mov    DWORD PTR [esi],0x8048575
 8048dad:	89 75 84             	mov    DWORD PTR [ebp-0x7c],esi
 8048db0:	83 c6 08             	add    esi,0x8
 8048db3:	89 f2                	mov    edx,esi
 8048db5:	83 c6 00             	add    esi,0x0
 8048db8:	89 56 04             	mov    DWORD PTR [esi+0x4],edx
 8048dbb:	c7 06 2c 85 04 08    	mov    DWORD PTR [esi],0x804852c
 8048dc1:	89 75 88             	mov    DWORD PTR [ebp-0x78],esi
 8048dc4:	83 c6 08             	add    esi,0x8
 8048dc7:	89 f2                	mov    edx,esi
 8048dc9:	83 c6 00             	add    esi,0x0
 8048dcc:	89 56 04             	mov    DWORD PTR [esi+0x4],edx
 8048dcf:	c7 06 23 90 04 08    	mov    DWORD PTR [esi],0x8049023
 8048dd5:	89 75 8c             	mov    DWORD PTR [ebp-0x74],esi
 8048dd8:	83 c6 08             	add    esi,0x8
 8048ddb:	89 f2                	mov    edx,esi
 8048ddd:	8b 45 d8             	mov    eax,DWORD PTR [ebp-0x28]
 8048de0:	89 06                	mov    DWORD PTR [esi],eax
 8048de2:	8b 85 78 ff ff ff    	mov    eax,DWORD PTR [ebp-0x88]
 8048de8:	89 46 04             	mov    DWORD PTR [esi+0x4],eax
 8048deb:	83 c6 08             	add    esi,0x8
 8048dee:	89 56 04             	mov    DWORD PTR [esi+0x4],edx
 8048df1:	c7 06 d6 8b 04 08    	mov    DWORD PTR [esi],0x8048bd6
 8048df7:	89 75 d8             	mov    DWORD PTR [ebp-0x28],esi
 8048dfa:	83 c6 08             	add    esi,0x8
 8048dfd:	89 f2                	mov    edx,esi
 8048dff:	8b 85 78 ff ff ff    	mov    eax,DWORD PTR [ebp-0x88]
 8048e05:	89 06                	mov    DWORD PTR [esi],eax
 8048e07:	83 c6 04             	add    esi,0x4
 8048e0a:	89 56 04             	mov    DWORD PTR [esi+0x4],edx
 8048e0d:	c7 06 95 8a 04 08    	mov    DWORD PTR [esi],0x8048a95
 8048e13:	89 b5 78 ff ff ff    	mov    DWORD PTR [ebp-0x88],esi
 8048e19:	83 c6 08             	add    esi,0x8
 8048e1c:	89 f2                	mov    edx,esi
 8048e1e:	8b 07                	mov    eax,DWORD PTR [edi]
 8048e20:	89 06                	mov    DWORD PTR [esi],eax
 8048e22:	83 c6 04             	add    esi,0x4
 8048e25:	89 56 04             	mov    DWORD PTR [esi+0x4],edx
 8048e28:	c7 06 1d 8d 04 08    	mov    DWORD PTR [esi],0x8048d1d
 8048e2e:	89 37                	mov    DWORD PTR [edi],esi
 8048e30:	83 c6 08             	add    esi,0x8
 8048e33:	89 f2                	mov    edx,esi
 8048e35:	8b 85 7c ff ff ff    	mov    eax,DWORD PTR [ebp-0x84]
 8048e3b:	89 06                	mov    DWORD PTR [esi],eax
 8048e3d:	83 c6 04             	add    esi,0x4
 8048e40:	89 56 04             	mov    DWORD PTR [esi+0x4],edx
 8048e43:	c7 06 d0 88 04 08    	mov    DWORD PTR [esi],0x80488d0
 8048e49:	89 b5 7c ff ff ff    	mov    DWORD PTR [ebp-0x84],esi
 8048e4f:	83 c6 08             	add    esi,0x8
 8048e52:	89 f2                	mov    edx,esi
 8048e54:	8b 45 84             	mov    eax,DWORD PTR [ebp-0x7c]
 8048e57:	89 06                	mov    DWORD PTR [esi],eax
 8048e59:	83 c6 04             	add    esi,0x4
 8048e5c:	89 56 04             	mov    DWORD PTR [esi+0x4],edx
 8048e5f:	c7 06 c9 86 04 08    	mov    DWORD PTR [esi],0x80486c9
 8048e65:	89 75 80             	mov    DWORD PTR [ebp-0x80],esi
 8048e68:	83 c6 08             	add    esi,0x8
 8048e6b:	89 f2                	mov    edx,esi
 8048e6d:	8b 45 84             	mov    eax,DWORD PTR [ebp-0x7c]
 8048e70:	89 06                	mov    DWORD PTR [esi],eax
 8048e72:	8b 45 88             	mov    eax,DWORD PTR [ebp-0x78]
 8048e75:	89 46 04             	mov    DWORD PTR [esi+0x4],eax
 8048e78:	83 c6 08             	add    esi,0x8
 8048e7b:	89 56 04             	mov    DWORD PTR [esi+0x4],edx
 8048e7e:	c7 06 75 85 04 08    	mov    DWORD PTR [esi],0x8048575
 8048e84:	89 75 84             	mov    DWORD PTR [ebp-0x7c],esi
 8048e87:	83 c6 08             	add    esi,0x8
 8048e8a:	89 f2                	mov    edx,esi
 8048e8c:	83 c6 00             	add    esi,0x0
 8048e8f:	89 56 04             	mov    DWORD PTR [esi+0x4],edx
 8048e92:	c7 06 2c 85 04 08    	mov    DWORD PTR [esi],0x804852c
 8048e98:	89 75 88             	mov    DWORD PTR [ebp-0x78],esi
 8048e9b:	83 c6 08             	add    esi,0x8
 8048e9e:	89 f2                	mov    edx,esi
 8048ea0:	83 c6 00             	add    esi,0x0
 8048ea3:	89 56 04             	mov    DWORD PTR [esi+0x4],edx
 8048ea6:	c7 06 23 90 04 08    	mov    DWORD PTR [esi],0x8049023
 8048eac:	89 75 8c             	mov    DWORD PTR [ebp-0x74],esi
 8048eaf:	83 c6 08             	add    esi,0x8
 8048eb2:	89 f2                	mov    edx,esi
 8048eb4:	83 c6 00             	add    esi,0x0
 8048eb7:	89 56 04             	mov    DWORD PTR [esi+0x4],edx
 8048eba:	c7 06 06 84 04 08    	mov    DWORD PTR [esi],0x8048406
 8048ec0:	89 75 90             	mov    DWORD PTR [ebp-0x70],esi
 8048ec3:	83 c6 08             	add    esi,0x8
 8048ec6:	89 75 94             	mov    DWORD PTR [ebp-0x6c],esi
 8048ec9:	83 c6 00             	add    esi,0x0
 8048ecc:	57                   	push   edi
 8048ecd:	ff 75 94             	push   DWORD PTR [ebp-0x6c]
 8048ed0:	8b 45 90             	mov    eax,DWORD PTR [ebp-0x70]
 8048ed3:	8b 78 04             	mov    edi,DWORD PTR [eax+0x4]
 8048ed6:	ff 10                	call   DWORD PTR [eax]
 8048ed8:	89 45 dc             	mov    DWORD PTR [ebp-0x24],eax
 8048edb:	83 c4 04             	add    esp,0x4
 8048ede:	5f                   	pop    edi
 8048edf:	8b 45 dc             	mov    eax,DWORD PTR [ebp-0x24]
 8048ee2:	89 45 98             	mov    DWORD PTR [ebp-0x68],eax
 8048ee5:	c7 45 9c 2d 00 00 00 	mov    DWORD PTR [ebp-0x64],0x2d
 8048eec:	8b 45 98             	mov    eax,DWORD PTR [ebp-0x68]
 8048eef:	8b 5d 9c             	mov    ebx,DWORD PTR [ebp-0x64]
 8048ef2:	39 d8                	cmp    eax,ebx
 8048ef4:	75 3c                	jne    8048f32 <frame_dummy+0xb72>
 8048ef6:	a1 30 b0 04 08       	mov    eax,ds:0x804b030
 8048efb:	89 45 a8             	mov    DWORD PTR [ebp-0x58],eax
 8048efe:	8b 45 d8             	mov    eax,DWORD PTR [ebp-0x28]
 8048f01:	89 45 a0             	mov    DWORD PTR [ebp-0x60],eax
 8048f04:	a1 34 b0 04 08       	mov    eax,ds:0x804b034
 8048f09:	89 45 a4             	mov    DWORD PTR [ebp-0x5c],eax
 8048f0c:	57                   	push   edi
 8048f0d:	ff 75 a4             	push   DWORD PTR [ebp-0x5c]
 8048f10:	8b 45 a0             	mov    eax,DWORD PTR [ebp-0x60]
 8048f13:	8b 78 04             	mov    edi,DWORD PTR [eax+0x4]
 8048f16:	ff 10                	call   DWORD PTR [eax]
 8048f18:	89 45 ac             	mov    DWORD PTR [ebp-0x54],eax
 8048f1b:	83 c4 04             	add    esp,0x4
 8048f1e:	5f                   	pop    edi
 8048f1f:	d9 45 a8             	fld    DWORD PTR [ebp-0x58]
 8048f22:	d9 45 ac             	fld    DWORD PTR [ebp-0x54]
 8048f25:	de e9                	fsubrp st(1),st
 8048f27:	d9 9d 74 ff ff ff    	fstp   DWORD PTR [ebp-0x8c]
 8048f2d:	e9 e3 00 00 00       	jmp    8049015 <frame_dummy+0xc55>
 8048f32:	8b 45 dc             	mov    eax,DWORD PTR [ebp-0x24]
 8048f35:	89 45 b0             	mov    DWORD PTR [ebp-0x50],eax
 8048f38:	c7 45 b4 2f 00 00 00 	mov    DWORD PTR [ebp-0x4c],0x2f
 8048f3f:	8b 5d b4             	mov    ebx,DWORD PTR [ebp-0x4c]
 8048f42:	8b 45 b0             	mov    eax,DWORD PTR [ebp-0x50]
 8048f45:	29 d8                	sub    eax,ebx
 8048f47:	89 45 c0             	mov    DWORD PTR [ebp-0x40],eax
 8048f4a:	c7 45 b8 3a 00 00 00 	mov    DWORD PTR [ebp-0x48],0x3a
 8048f51:	8b 45 dc             	mov    eax,DWORD PTR [ebp-0x24]
 8048f54:	89 45 bc             	mov    DWORD PTR [ebp-0x44],eax
 8048f57:	8b 5d bc             	mov    ebx,DWORD PTR [ebp-0x44]
 8048f5a:	8b 45 b8             	mov    eax,DWORD PTR [ebp-0x48]
 8048f5d:	29 d8                	sub    eax,ebx
 8048f5f:	89 45 c4             	mov    DWORD PTR [ebp-0x3c],eax
 8048f62:	8b 5d c4             	mov    ebx,DWORD PTR [ebp-0x3c]
 8048f65:	8b 45 c0             	mov    eax,DWORD PTR [ebp-0x40]
 8048f68:	f7 e3                	mul    ebx
 8048f6a:	89 45 c8             	mov    DWORD PTR [ebp-0x38],eax
 8048f6d:	c7 45 cc 00 00 00 00 	mov    DWORD PTR [ebp-0x34],0x0
 8048f74:	8b 5d cc             	mov    ebx,DWORD PTR [ebp-0x34]
 8048f77:	8b 45 c8             	mov    eax,DWORD PTR [ebp-0x38]
 8048f7a:	31 c9                	xor    ecx,ecx
 8048f7c:	39 d8                	cmp    eax,ebx
 8048f7e:	0f 9f c1             	setg   cl
 8048f81:	89 c8                	mov    eax,ecx
 8048f83:	89 45 d0             	mov    DWORD PTR [ebp-0x30],eax
 8048f86:	c7 45 d4 01 00 00 00 	mov    DWORD PTR [ebp-0x2c],0x1
 8048f8d:	8b 45 d0             	mov    eax,DWORD PTR [ebp-0x30]
 8048f90:	8b 5d d4             	mov    ebx,DWORD PTR [ebp-0x2c]
 8048f93:	39 d8                	cmp    eax,ebx
 8048f95:	75 5d                	jne    8048ff4 <frame_dummy+0xc34>
 8048f97:	8b 45 d8             	mov    eax,DWORD PTR [ebp-0x28]
 8048f9a:	89 45 f0             	mov    DWORD PTR [ebp-0x10],eax
 8048f9d:	89 f2                	mov    edx,esi
 8048f9f:	83 c6 00             	add    esi,0x0
 8048fa2:	89 56 04             	mov    DWORD PTR [esi+0x4],edx
 8048fa5:	c7 06 25 84 04 08    	mov    DWORD PTR [esi],0x8048425
 8048fab:	89 75 e8             	mov    DWORD PTR [ebp-0x18],esi
 8048fae:	83 c6 08             	add    esi,0x8
 8048fb1:	8b 45 dc             	mov    eax,DWORD PTR [ebp-0x24]
 8048fb4:	89 45 e0             	mov    DWORD PTR [ebp-0x20],eax
 8048fb7:	c7 45 e4 30 00 00 00 	mov    DWORD PTR [ebp-0x1c],0x30
 8048fbe:	8b 5d e4             	mov    ebx,DWORD PTR [ebp-0x1c]
 8048fc1:	8b 45 e0             	mov    eax,DWORD PTR [ebp-0x20]
 8048fc4:	29 d8                	sub    eax,ebx
 8048fc6:	89 45 ec             	mov    DWORD PTR [ebp-0x14],eax
 8048fc9:	57                   	push   edi
 8048fca:	ff 75 ec             	push   DWORD PTR [ebp-0x14]
 8048fcd:	8b 45 e8             	mov    eax,DWORD PTR [ebp-0x18]
 8048fd0:	8b 78 04             	mov    edi,DWORD PTR [eax+0x4]
 8048fd3:	ff 10                	call   DWORD PTR [eax]
 8048fd5:	89 45 f4             	mov    DWORD PTR [ebp-0xc],eax
 8048fd8:	83 c4 04             	add    esp,0x4
 8048fdb:	5f                   	pop    edi
 8048fdc:	57                   	push   edi
 8048fdd:	ff 75 f4             	push   DWORD PTR [ebp-0xc]
 8048fe0:	8b 45 f0             	mov    eax,DWORD PTR [ebp-0x10]
 8048fe3:	8b 78 04             	mov    edi,DWORD PTR [eax+0x4]
 8048fe6:	ff 10                	call   DWORD PTR [eax]
 8048fe8:	89 85 74 ff ff ff    	mov    DWORD PTR [ebp-0x8c],eax
 8048fee:	83 c4 04             	add    esp,0x4
 8048ff1:	5f                   	pop    edi
 8048ff2:	eb 21                	jmp    8049015 <frame_dummy+0xc55>
 8048ff4:	8b 07                	mov    eax,DWORD PTR [edi]
 8048ff6:	89 45 f8             	mov    DWORD PTR [ebp-0x8],eax
 8048ff9:	8b 45 08             	mov    eax,DWORD PTR [ebp+0x8]
 8048ffc:	89 45 fc             	mov    DWORD PTR [ebp-0x4],eax
 8048fff:	57                   	push   edi
 8049000:	ff 75 fc             	push   DWORD PTR [ebp-0x4]
 8049003:	8b 45 f8             	mov    eax,DWORD PTR [ebp-0x8]
 8049006:	8b 78 04             	mov    edi,DWORD PTR [eax+0x4]
 8049009:	ff 10                	call   DWORD PTR [eax]
 804900b:	89 85 74 ff ff ff    	mov    DWORD PTR [ebp-0x8c],eax
 8049011:	83 c4 04             	add    esp,0x4
 8049014:	5f                   	pop    edi
 8049015:	8b 85 74 ff ff ff    	mov    eax,DWORD PTR [ebp-0x8c]
 804901b:	81 c4 8c 00 00 00    	add    esp,0x8c
 8049021:	5d                   	pop    ebp
 8049022:	c3                   	ret    
 8049023:	55                   	push   ebp
 8049024:	89 e5                	mov    ebp,esp
 8049026:	83 ec 7c             	sub    esp,0x7c
 8049029:	c7 45 88 00 00 00 00 	mov    DWORD PTR [ebp-0x78],0x0
 8049030:	89 f2                	mov    edx,esi
 8049032:	83 c6 00             	add    esi,0x0
 8049035:	89 56 04             	mov    DWORD PTR [esi+0x4],edx
 8049038:	c7 06 2c 85 04 08    	mov    DWORD PTR [esi],0x804852c
 804903e:	89 75 98             	mov    DWORD PTR [ebp-0x68],esi
 8049041:	83 c6 08             	add    esi,0x8
 8049044:	89 f2                	mov    edx,esi
 8049046:	83 c6 00             	add    esi,0x0
 8049049:	89 56 04             	mov    DWORD PTR [esi+0x4],edx
 804904c:	c7 06 23 90 04 08    	mov    DWORD PTR [esi],0x8049023
 8049052:	89 75 9c             	mov    DWORD PTR [ebp-0x64],esi
 8049055:	83 c6 08             	add    esi,0x8
 8049058:	89 f2                	mov    edx,esi
 804905a:	8b 45 94             	mov    eax,DWORD PTR [ebp-0x6c]
 804905d:	89 06                	mov    DWORD PTR [esi],eax
 804905f:	8b 45 98             	mov    eax,DWORD PTR [ebp-0x68]
 8049062:	89 46 04             	mov    DWORD PTR [esi+0x4],eax
 8049065:	83 c6 08             	add    esi,0x8
 8049068:	89 56 04             	mov    DWORD PTR [esi+0x4],edx
 804906b:	c7 06 75 85 04 08    	mov    DWORD PTR [esi],0x8048575
 8049071:	89 75 94             	mov    DWORD PTR [ebp-0x6c],esi
 8049074:	83 c6 08             	add    esi,0x8
 8049077:	89 f2                	mov    edx,esi
 8049079:	83 c6 00             	add    esi,0x0
 804907c:	89 56 04             	mov    DWORD PTR [esi+0x4],edx
 804907f:	c7 06 2c 85 04 08    	mov    DWORD PTR [esi],0x804852c
 8049085:	89 75 98             	mov    DWORD PTR [ebp-0x68],esi
 8049088:	83 c6 08             	add    esi,0x8
 804908b:	89 f2                	mov    edx,esi
 804908d:	83 c6 00             	add    esi,0x0
 8049090:	89 56 04             	mov    DWORD PTR [esi+0x4],edx
 8049093:	c7 06 23 90 04 08    	mov    DWORD PTR [esi],0x8049023
 8049099:	89 75 9c             	mov    DWORD PTR [ebp-0x64],esi
 804909c:	83 c6 08             	add    esi,0x8
 804909f:	89 f2                	mov    edx,esi
 80490a1:	8b 45 94             	mov    eax,DWORD PTR [ebp-0x6c]
 80490a4:	89 06                	mov    DWORD PTR [esi],eax
 80490a6:	83 c6 04             	add    esi,0x4
 80490a9:	89 56 04             	mov    DWORD PTR [esi+0x4],edx
 80490ac:	c7 06 c9 86 04 08    	mov    DWORD PTR [esi],0x80486c9
 80490b2:	89 75 c0             	mov    DWORD PTR [ebp-0x40],esi
 80490b5:	83 c6 08             	add    esi,0x8
 80490b8:	89 f2                	mov    edx,esi
 80490ba:	8b 45 94             	mov    eax,DWORD PTR [ebp-0x6c]
 80490bd:	89 06                	mov    DWORD PTR [esi],eax
 80490bf:	8b 45 98             	mov    eax,DWORD PTR [ebp-0x68]
 80490c2:	89 46 04             	mov    DWORD PTR [esi+0x4],eax
 80490c5:	83 c6 08             	add    esi,0x8
 80490c8:	89 56 04             	mov    DWORD PTR [esi+0x4],edx
 80490cb:	c7 06 75 85 04 08    	mov    DWORD PTR [esi],0x8048575
 80490d1:	89 75 94             	mov    DWORD PTR [ebp-0x6c],esi
 80490d4:	83 c6 08             	add    esi,0x8
 80490d7:	89 f2                	mov    edx,esi
 80490d9:	83 c6 00             	add    esi,0x0
 80490dc:	89 56 04             	mov    DWORD PTR [esi+0x4],edx
 80490df:	c7 06 2c 85 04 08    	mov    DWORD PTR [esi],0x804852c
 80490e5:	89 75 98             	mov    DWORD PTR [ebp-0x68],esi
 80490e8:	83 c6 08             	add    esi,0x8
 80490eb:	89 f2                	mov    edx,esi
 80490ed:	83 c6 00             	add    esi,0x0
 80490f0:	89 56 04             	mov    DWORD PTR [esi+0x4],edx
 80490f3:	c7 06 23 90 04 08    	mov    DWORD PTR [esi],0x8049023
 80490f9:	89 75 9c             	mov    DWORD PTR [ebp-0x64],esi
 80490fc:	83 c6 08             	add    esi,0x8
 80490ff:	89 f2                	mov    edx,esi
 8049101:	8b 45 90             	mov    eax,DWORD PTR [ebp-0x70]
 8049104:	89 06                	mov    DWORD PTR [esi],eax
 8049106:	83 c6 04             	add    esi,0x4
 8049109:	89 56 04             	mov    DWORD PTR [esi+0x4],edx
 804910c:	c7 06 d0 88 04 08    	mov    DWORD PTR [esi],0x80488d0
 8049112:	89 75 90             	mov    DWORD PTR [ebp-0x70],esi
 8049115:	83 c6 08             	add    esi,0x8
 8049118:	89 f2                	mov    edx,esi
 804911a:	8b 45 94             	mov    eax,DWORD PTR [ebp-0x6c]
 804911d:	89 06                	mov    DWORD PTR [esi],eax
 804911f:	83 c6 04             	add    esi,0x4
 8049122:	89 56 04             	mov    DWORD PTR [esi+0x4],edx
 8049125:	c7 06 c9 86 04 08    	mov    DWORD PTR [esi],0x80486c9
 804912b:	89 75 c0             	mov    DWORD PTR [ebp-0x40],esi
 804912e:	83 c6 08             	add    esi,0x8
 8049131:	89 f2                	mov    edx,esi
 8049133:	8b 45 94             	mov    eax,DWORD PTR [ebp-0x6c]
 8049136:	89 06                	mov    DWORD PTR [esi],eax
 8049138:	8b 45 98             	mov    eax,DWORD PTR [ebp-0x68]
 804913b:	89 46 04             	mov    DWORD PTR [esi+0x4],eax
 804913e:	83 c6 08             	add    esi,0x8
 8049141:	89 56 04             	mov    DWORD PTR [esi+0x4],edx
 8049144:	c7 06 75 85 04 08    	mov    DWORD PTR [esi],0x8048575
 804914a:	89 75 94             	mov    DWORD PTR [ebp-0x6c],esi
 804914d:	83 c6 08             	add    esi,0x8
 8049150:	89 f2                	mov    edx,esi
 8049152:	83 c6 00             	add    esi,0x0
 8049155:	89 56 04             	mov    DWORD PTR [esi+0x4],edx
 8049158:	c7 06 2c 85 04 08    	mov    DWORD PTR [esi],0x804852c
 804915e:	89 75 98             	mov    DWORD PTR [ebp-0x68],esi
 8049161:	83 c6 08             	add    esi,0x8
 8049164:	89 f2                	mov    edx,esi
 8049166:	83 c6 00             	add    esi,0x0
 8049169:	89 56 04             	mov    DWORD PTR [esi+0x4],edx
 804916c:	c7 06 23 90 04 08    	mov    DWORD PTR [esi],0x8049023
 8049172:	89 75 9c             	mov    DWORD PTR [ebp-0x64],esi
 8049175:	83 c6 08             	add    esi,0x8
 8049178:	89 f2                	mov    edx,esi
 804917a:	8b 45 8c             	mov    eax,DWORD PTR [ebp-0x74]
 804917d:	89 06                	mov    DWORD PTR [esi],eax
 804917f:	83 c6 04             	add    esi,0x4
 8049182:	89 56 04             	mov    DWORD PTR [esi+0x4],edx
 8049185:	c7 06 1d 8d 04 08    	mov    DWORD PTR [esi],0x8048d1d
 804918b:	89 75 8c             	mov    DWORD PTR [ebp-0x74],esi
 804918e:	83 c6 08             	add    esi,0x8
 8049191:	89 f2                	mov    edx,esi
 8049193:	8b 45 90             	mov    eax,DWORD PTR [ebp-0x70]
 8049196:	89 06                	mov    DWORD PTR [esi],eax
 8049198:	83 c6 04             	add    esi,0x4
 804919b:	89 56 04             	mov    DWORD PTR [esi+0x4],edx
 804919e:	c7 06 d0 88 04 08    	mov    DWORD PTR [esi],0x80488d0
 80491a4:	89 75 90             	mov    DWORD PTR [ebp-0x70],esi
 80491a7:	83 c6 08             	add    esi,0x8
 80491aa:	89 f2                	mov    edx,esi
 80491ac:	8b 45 94             	mov    eax,DWORD PTR [ebp-0x6c]
 80491af:	89 06                	mov    DWORD PTR [esi],eax
 80491b1:	83 c6 04             	add    esi,0x4
 80491b4:	89 56 04             	mov    DWORD PTR [esi+0x4],edx
 80491b7:	c7 06 c9 86 04 08    	mov    DWORD PTR [esi],0x80486c9
 80491bd:	89 75 c0             	mov    DWORD PTR [ebp-0x40],esi
 80491c0:	83 c6 08             	add    esi,0x8
 80491c3:	89 f2                	mov    edx,esi
 80491c5:	8b 45 94             	mov    eax,DWORD PTR [ebp-0x6c]
 80491c8:	89 06                	mov    DWORD PTR [esi],eax
 80491ca:	8b 45 98             	mov    eax,DWORD PTR [ebp-0x68]
 80491cd:	89 46 04             	mov    DWORD PTR [esi+0x4],eax
 80491d0:	83 c6 08             	add    esi,0x8
 80491d3:	89 56 04             	mov    DWORD PTR [esi+0x4],edx
 80491d6:	c7 06 75 85 04 08    	mov    DWORD PTR [esi],0x8048575
 80491dc:	89 75 94             	mov    DWORD PTR [ebp-0x6c],esi
 80491df:	83 c6 08             	add    esi,0x8
 80491e2:	89 f2                	mov    edx,esi
 80491e4:	83 c6 00             	add    esi,0x0
 80491e7:	89 56 04             	mov    DWORD PTR [esi+0x4],edx
 80491ea:	c7 06 2c 85 04 08    	mov    DWORD PTR [esi],0x804852c
 80491f0:	89 75 98             	mov    DWORD PTR [ebp-0x68],esi
 80491f3:	83 c6 08             	add    esi,0x8
 80491f6:	89 f2                	mov    edx,esi
 80491f8:	83 c6 00             	add    esi,0x0
 80491fb:	89 56 04             	mov    DWORD PTR [esi+0x4],edx
 80491fe:	c7 06 23 90 04 08    	mov    DWORD PTR [esi],0x8049023
 8049204:	89 75 9c             	mov    DWORD PTR [ebp-0x64],esi
 8049207:	83 c6 08             	add    esi,0x8
 804920a:	8b 45 c0             	mov    eax,DWORD PTR [ebp-0x40]
 804920d:	89 45 a0             	mov    DWORD PTR [ebp-0x60],eax
 8049210:	c7 45 a4 3a 01 00 00 	mov    DWORD PTR [ebp-0x5c],0x13a
 8049217:	57                   	push   edi
 8049218:	ff 75 a4             	push   DWORD PTR [ebp-0x5c]
 804921b:	8b 45 a0             	mov    eax,DWORD PTR [ebp-0x60]
 804921e:	8b 78 04             	mov    edi,DWORD PTR [eax+0x4]
 8049221:	ff 10                	call   DWORD PTR [eax]
 8049223:	89 45 f8             	mov    DWORD PTR [ebp-0x8],eax
 8049226:	83 c4 04             	add    esp,0x4
 8049229:	5f                   	pop    edi
 804922a:	89 f2                	mov    edx,esi
 804922c:	83 c6 00             	add    esi,0x0
 804922f:	89 56 04             	mov    DWORD PTR [esi+0x4],edx
 8049232:	c7 06 f0 83 04 08    	mov    DWORD PTR [esi],0x80483f0
 8049238:	89 75 a8             	mov    DWORD PTR [ebp-0x58],esi
 804923b:	83 c6 08             	add    esi,0x8
 804923e:	c7 45 ac 0a 00 00 00 	mov    DWORD PTR [ebp-0x54],0xa
 8049245:	57                   	push   edi
 8049246:	ff 75 ac             	push   DWORD PTR [ebp-0x54]
 8049249:	8b 45 a8             	mov    eax,DWORD PTR [ebp-0x58]
 804924c:	8b 78 04             	mov    edi,DWORD PTR [eax+0x4]
 804924f:	ff 10                	call   DWORD PTR [eax]
 8049251:	89 45 f0             	mov    DWORD PTR [ebp-0x10],eax
 8049254:	83 c4 04             	add    esp,0x4
 8049257:	5f                   	pop    edi
 8049258:	8b 45 c0             	mov    eax,DWORD PTR [ebp-0x40]
 804925b:	89 45 b0             	mov    DWORD PTR [ebp-0x50],eax
 804925e:	c7 45 b4 00 00 00 00 	mov    DWORD PTR [ebp-0x4c],0x0
 8049265:	57                   	push   edi
 8049266:	ff 75 b4             	push   DWORD PTR [ebp-0x4c]
 8049269:	8b 45 b0             	mov    eax,DWORD PTR [ebp-0x50]
 804926c:	8b 78 04             	mov    edi,DWORD PTR [eax+0x4]
 804926f:	ff 10                	call   DWORD PTR [eax]
 8049271:	89 45 e8             	mov    DWORD PTR [ebp-0x18],eax
 8049274:	83 c4 04             	add    esp,0x4
 8049277:	5f                   	pop    edi
 8049278:	89 f2                	mov    edx,esi
 804927a:	83 c6 00             	add    esi,0x0
 804927d:	89 56 04             	mov    DWORD PTR [esi+0x4],edx
 8049280:	c7 06 f0 83 04 08    	mov    DWORD PTR [esi],0x80483f0
 8049286:	89 75 b8             	mov    DWORD PTR [ebp-0x48],esi
 8049289:	83 c6 08             	add    esi,0x8
 804928c:	c7 45 bc 0a 00 00 00 	mov    DWORD PTR [ebp-0x44],0xa
 8049293:	57                   	push   edi
 8049294:	ff 75 bc             	push   DWORD PTR [ebp-0x44]
 8049297:	8b 45 b8             	mov    eax,DWORD PTR [ebp-0x48]
 804929a:	8b 78 04             	mov    edi,DWORD PTR [eax+0x4]
 804929d:	ff 10                	call   DWORD PTR [eax]
 804929f:	89 45 e0             	mov    DWORD PTR [ebp-0x20],eax
 80492a2:	83 c4 04             	add    esp,0x4
 80492a5:	5f                   	pop    edi
 80492a6:	8b 45 c0             	mov    eax,DWORD PTR [ebp-0x40]
 80492a9:	89 45 c8             	mov    DWORD PTR [ebp-0x38],eax
 80492ac:	c7 45 c4 d2 04 00 00 	mov    DWORD PTR [ebp-0x3c],0x4d2
 80492b3:	8b 45 c4             	mov    eax,DWORD PTR [ebp-0x3c]
 80492b6:	f7 d8                	neg    eax
 80492b8:	89 45 cc             	mov    DWORD PTR [ebp-0x34],eax
 80492bb:	57                   	push   edi
 80492bc:	ff 75 cc             	push   DWORD PTR [ebp-0x34]
 80492bf:	8b 45 c8             	mov    eax,DWORD PTR [ebp-0x38]
 80492c2:	8b 78 04             	mov    edi,DWORD PTR [eax+0x4]
 80492c5:	ff 10                	call   DWORD PTR [eax]
 80492c7:	89 45 d8             	mov    DWORD PTR [ebp-0x28],eax
 80492ca:	83 c4 04             	add    esp,0x4
 80492cd:	5f                   	pop    edi
 80492ce:	89 f2                	mov    edx,esi
 80492d0:	83 c6 00             	add    esi,0x0
 80492d3:	89 56 04             	mov    DWORD PTR [esi+0x4],edx
 80492d6:	c7 06 f0 83 04 08    	mov    DWORD PTR [esi],0x80483f0
 80492dc:	89 75 d0             	mov    DWORD PTR [ebp-0x30],esi
 80492df:	83 c6 08             	add    esi,0x8
 80492e2:	c7 45 d4 0a 00 00 00 	mov    DWORD PTR [ebp-0x2c],0xa
 80492e9:	57                   	push   edi
 80492ea:	ff 75 d4             	push   DWORD PTR [ebp-0x2c]
 80492ed:	8b 45 d0             	mov    eax,DWORD PTR [ebp-0x30]
 80492f0:	8b 78 04             	mov    edi,DWORD PTR [eax+0x4]
 80492f3:	ff 10                	call   DWORD PTR [eax]
 80492f5:	89 45 dc             	mov    DWORD PTR [ebp-0x24],eax
 80492f8:	83 c4 04             	add    esp,0x4
 80492fb:	5f                   	pop    edi
 80492fc:	8b 45 dc             	mov    eax,DWORD PTR [ebp-0x24]
 80492ff:	89 45 e4             	mov    DWORD PTR [ebp-0x1c],eax
 8049302:	8b 45 e4             	mov    eax,DWORD PTR [ebp-0x1c]
 8049305:	89 45 ec             	mov    DWORD PTR [ebp-0x14],eax
 8049308:	8b 45 ec             	mov    eax,DWORD PTR [ebp-0x14]
 804930b:	89 45 f4             	mov    DWORD PTR [ebp-0xc],eax
 804930e:	8b 45 f4             	mov    eax,DWORD PTR [ebp-0xc]
 8049311:	89 45 fc             	mov    DWORD PTR [ebp-0x4],eax
 8049314:	8b 45 fc             	mov    eax,DWORD PTR [ebp-0x4]
 8049317:	89 45 84             	mov    DWORD PTR [ebp-0x7c],eax
 804931a:	8b 45 84             	mov    eax,DWORD PTR [ebp-0x7c]
 804931d:	83 c4 7c             	add    esp,0x7c
 8049320:	5d                   	pop    ebp
 8049321:	c3                   	ret    

08049322 <main>:
 8049322:	55                   	push   ebp
 8049323:	89 e5                	mov    ebp,esp
 8049325:	83 ec 10             	sub    esp,0x10
 8049328:	be 3c b0 04 08       	mov    esi,0x804b03c
 804932d:	89 f2                	mov    edx,esi
 804932f:	83 c6 00             	add    esi,0x0
 8049332:	89 56 04             	mov    DWORD PTR [esi+0x4],edx
 8049335:	c7 06 23 90 04 08    	mov    DWORD PTR [esi],0x8049023
 804933b:	89 75 f4             	mov    DWORD PTR [ebp-0xc],esi
 804933e:	83 c6 08             	add    esi,0x8
 8049341:	8b 45 f4             	mov    eax,DWORD PTR [ebp-0xc]
 8049344:	89 45 f8             	mov    DWORD PTR [ebp-0x8],eax
 8049347:	89 75 fc             	mov    DWORD PTR [ebp-0x4],esi
 804934a:	83 c6 00             	add    esi,0x0
 804934d:	57                   	push   edi
 804934e:	ff 75 fc             	push   DWORD PTR [ebp-0x4]
 8049351:	8b 45 f8             	mov    eax,DWORD PTR [ebp-0x8]
 8049354:	8b 78 04             	mov    edi,DWORD PTR [eax+0x4]
 8049357:	ff 10                	call   DWORD PTR [eax]
 8049359:	89 45 f0             	mov    DWORD PTR [ebp-0x10],eax
 804935c:	83 c4 04             	add    esp,0x4
 804935f:	5f                   	pop    edi
 8049360:	b8 00 00 00 00       	mov    eax,0x0
 8049365:	83 c4 10             	add    esp,0x10
 8049368:	5d                   	pop    ebp
 8049369:	c3                   	ret    
 804936a:	66 90                	xchg   ax,ax
 804936c:	66 90                	xchg   ax,ax
 804936e:	66 90                	xchg   ax,ax

08049370 <__libc_csu_init>:
 8049370:	55                   	push   ebp
 8049371:	57                   	push   edi
 8049372:	31 ff                	xor    edi,edi
 8049374:	56                   	push   esi
 8049375:	53                   	push   ebx
 8049376:	e8 a5 ef ff ff       	call   8048320 <__x86.get_pc_thunk.bx>
 804937b:	81 c3 85 1c 00 00    	add    ebx,0x1c85
 8049381:	83 ec 1c             	sub    esp,0x1c
 8049384:	8b 6c 24 30          	mov    ebp,DWORD PTR [esp+0x30]
 8049388:	8d b3 0c ff ff ff    	lea    esi,[ebx-0xf4]
 804938e:	e8 01 ef ff ff       	call   8048294 <_init>
 8049393:	8d 83 08 ff ff ff    	lea    eax,[ebx-0xf8]
 8049399:	29 c6                	sub    esi,eax
 804939b:	c1 fe 02             	sar    esi,0x2
 804939e:	85 f6                	test   esi,esi
 80493a0:	74 27                	je     80493c9 <__libc_csu_init+0x59>
 80493a2:	8d b6 00 00 00 00    	lea    esi,[esi+0x0]
 80493a8:	8b 44 24 38          	mov    eax,DWORD PTR [esp+0x38]
 80493ac:	89 2c 24             	mov    DWORD PTR [esp],ebp
 80493af:	89 44 24 08          	mov    DWORD PTR [esp+0x8],eax
 80493b3:	8b 44 24 34          	mov    eax,DWORD PTR [esp+0x34]
 80493b7:	89 44 24 04          	mov    DWORD PTR [esp+0x4],eax
 80493bb:	ff 94 bb 08 ff ff ff 	call   DWORD PTR [ebx+edi*4-0xf8]
 80493c2:	83 c7 01             	add    edi,0x1
 80493c5:	39 f7                	cmp    edi,esi
 80493c7:	75 df                	jne    80493a8 <__libc_csu_init+0x38>
 80493c9:	83 c4 1c             	add    esp,0x1c
 80493cc:	5b                   	pop    ebx
 80493cd:	5e                   	pop    esi
 80493ce:	5f                   	pop    edi
 80493cf:	5d                   	pop    ebp
 80493d0:	c3                   	ret    
 80493d1:	eb 0d                	jmp    80493e0 <__libc_csu_fini>
 80493d3:	90                   	nop
 80493d4:	90                   	nop
 80493d5:	90                   	nop
 80493d6:	90                   	nop
 80493d7:	90                   	nop
 80493d8:	90                   	nop
 80493d9:	90                   	nop
 80493da:	90                   	nop
 80493db:	90                   	nop
 80493dc:	90                   	nop
 80493dd:	90                   	nop
 80493de:	90                   	nop
 80493df:	90                   	nop

080493e0 <__libc_csu_fini>:
 80493e0:	f3 c3                	repz ret 

セクション .fini の逆アセンブル:

080493e4 <_fini>:
 80493e4:	53                   	push   ebx
 80493e5:	83 ec 08             	sub    esp,0x8
 80493e8:	e8 33 ef ff ff       	call   8048320 <__x86.get_pc_thunk.bx>
 80493ed:	81 c3 13 1c 00 00    	add    ebx,0x1c13
 80493f3:	83 c4 08             	add    esp,0x8
 80493f6:	5b                   	pop    ebx
 80493f7:	c3                   	ret    
